ARM GAS  C:\Users\charl\AppData\Local\Temp\ccXtIxtO.s 			page 1


   1              		.syntax unified
   2              		.cpu cortex-m4
   3              		.eabi_attribute 27, 1
   4              		.fpu fpv4-sp-d16
   5              		.eabi_attribute 20, 1
   6              		.eabi_attribute 21, 1
   7              		.eabi_attribute 23, 3
   8              		.eabi_attribute 24, 1
   9              		.eabi_attribute 25, 1
  10              		.eabi_attribute 26, 1
  11              		.eabi_attribute 30, 1
  12              		.eabi_attribute 34, 1
  13              		.eabi_attribute 18, 4
  14              		.thumb
  15              		.syntax unified
  16              		.file	"main_cm4.c"
  17              		.text
  18              	.Ltext0:
  19              		.cfi_sections	.debug_frame
  20              		.section	.text.taskLED,"ax",%progbits
  21              		.align	2
  22              		.global	taskLED
  23              		.thumb
  24              		.thumb_func
  25              		.type	taskLED, %function
  26              	taskLED:
  27              	.LFB471:
  28              		.file 1 "main_cm4.c"
   1:main_cm4.c    **** /* ========================================
   2:main_cm4.c    ****  *
   3:main_cm4.c    ****  * Copyright YOUR COMPANY, THE YEAR
   4:main_cm4.c    ****  * All Rights Reserved
   5:main_cm4.c    ****  * UNPUBLISHED, LICENSED SOFTWARE.
   6:main_cm4.c    ****  *
   7:main_cm4.c    ****  * CONFIDENTIAL AND PROPRIETARY INFORMATION
   8:main_cm4.c    ****  * WHICH IS THE PROPERTY OF your company.
   9:main_cm4.c    ****  *
  10:main_cm4.c    ****  * ========================================
  11:main_cm4.c    **** */
  12:main_cm4.c    **** #include "project.h"
  13:main_cm4.c    **** #include "FreeRTOS.h"
  14:main_cm4.c    **** #include "task.h"
  15:main_cm4.c    **** #include "semphr.h"
  16:main_cm4.c    **** #include "params.h"
  17:main_cm4.c    **** #include "queue.h"
  18:main_cm4.c    **** 
  19:main_cm4.c    **** SemaphoreHandle_t semaph;
  20:main_cm4.c    **** int compteur = 1;
  21:main_cm4.c    **** task_params_t task_A = {
  22:main_cm4.c    ****     .delay = 1000,
  23:main_cm4.c    ****     .message = "Tache A en cours\n\r"
  24:main_cm4.c    **** };
  25:main_cm4.c    **** task_params_t task_B = {
  26:main_cm4.c    ****     .delay = 999,
  27:main_cm4.c    ****     .message = "Tache B en cours\n\r"
  28:main_cm4.c    **** };
  29:main_cm4.c    **** 
ARM GAS  C:\Users\charl\AppData\Local\Temp\ccXtIxtO.s 			page 2


  30:main_cm4.c    **** void taskLED(void *pvParameters)
  31:main_cm4.c    **** {
  29              		.loc 1 31 0
  30              		.cfi_startproc
  31              		@ Volatile: function does not return.
  32              		@ args = 0, pretend = 0, frame = 0
  33              		@ frame_needed = 0, uses_anonymous_args = 0
  34              	.LVL0:
  35 0000 08B5     		push	{r3, lr}
  36              		.cfi_def_cfa_offset 8
  37              		.cfi_offset 3, -8
  38              		.cfi_offset 14, -4
  39              	.LVL1:
  40              	.L2:
  32:main_cm4.c    ****     for (;;)
  33:main_cm4.c    ****     {
  34:main_cm4.c    ****         vTaskDelay(pdMS_TO_TICKS(500));
  41              		.loc 1 34 0 discriminator 1
  42 0002 4FF4FA70 		mov	r0, #500
  43 0006 FFF7FEFF 		bl	vTaskDelay
  44              	.LVL2:
  45              	.LBB22:
  46              	.LBB23:
  47              		.file 2 "Generated_Source\\PSoC6\\pdl\\drivers/peripheral/gpio/cy_gpio.h"
   1:Generated_Source\PSoC6\pdl\drivers/peripheral/gpio/cy_gpio.h **** /***************************************************************************//**
   2:Generated_Source\PSoC6\pdl\drivers/peripheral/gpio/cy_gpio.h **** * \file cy_gpio.h
   3:Generated_Source\PSoC6\pdl\drivers/peripheral/gpio/cy_gpio.h **** * \version 1.10.1
   4:Generated_Source\PSoC6\pdl\drivers/peripheral/gpio/cy_gpio.h **** *
   5:Generated_Source\PSoC6\pdl\drivers/peripheral/gpio/cy_gpio.h **** * \brief
   6:Generated_Source\PSoC6\pdl\drivers/peripheral/gpio/cy_gpio.h **** * Provides an API declaration of the GPIO driver
   7:Generated_Source\PSoC6\pdl\drivers/peripheral/gpio/cy_gpio.h **** *
   8:Generated_Source\PSoC6\pdl\drivers/peripheral/gpio/cy_gpio.h **** ********************************************************************************
   9:Generated_Source\PSoC6\pdl\drivers/peripheral/gpio/cy_gpio.h **** * \copyright
  10:Generated_Source\PSoC6\pdl\drivers/peripheral/gpio/cy_gpio.h **** * Copyright 2016-2018, Cypress Semiconductor Corporation. All rights reserved.
  11:Generated_Source\PSoC6\pdl\drivers/peripheral/gpio/cy_gpio.h **** * You may use this file only in accordance with the license, terms, conditions,
  12:Generated_Source\PSoC6\pdl\drivers/peripheral/gpio/cy_gpio.h **** * disclaimers, and limitations in the end user license agreement accompanying
  13:Generated_Source\PSoC6\pdl\drivers/peripheral/gpio/cy_gpio.h **** * the software package with which this file was provided.
  14:Generated_Source\PSoC6\pdl\drivers/peripheral/gpio/cy_gpio.h **** *******************************************************************************/
  15:Generated_Source\PSoC6\pdl\drivers/peripheral/gpio/cy_gpio.h **** 
  16:Generated_Source\PSoC6\pdl\drivers/peripheral/gpio/cy_gpio.h **** /**
  17:Generated_Source\PSoC6\pdl\drivers/peripheral/gpio/cy_gpio.h **** * \defgroup group_gpio General Purpose Input Output (GPIO)
  18:Generated_Source\PSoC6\pdl\drivers/peripheral/gpio/cy_gpio.h **** * \{
  19:Generated_Source\PSoC6\pdl\drivers/peripheral/gpio/cy_gpio.h **** * The GPIO driver provides an API to configure and access device Input/Output pins.
  20:Generated_Source\PSoC6\pdl\drivers/peripheral/gpio/cy_gpio.h **** * IO pins include all general purpose types such as GPIO, SIO, HSIO, AUXIO, and
  21:Generated_Source\PSoC6\pdl\drivers/peripheral/gpio/cy_gpio.h **** * their variants.
  22:Generated_Source\PSoC6\pdl\drivers/peripheral/gpio/cy_gpio.h **** *
  23:Generated_Source\PSoC6\pdl\drivers/peripheral/gpio/cy_gpio.h **** * Initialization can be performed either at the port level or by configuring the
  24:Generated_Source\PSoC6\pdl\drivers/peripheral/gpio/cy_gpio.h **** * individual pins. For efficient use of code space, port
  25:Generated_Source\PSoC6\pdl\drivers/peripheral/gpio/cy_gpio.h **** * configuration should be used in the field. Refer to the product device header files 
  26:Generated_Source\PSoC6\pdl\drivers/peripheral/gpio/cy_gpio.h **** * for the list of supported ports and pins.
  27:Generated_Source\PSoC6\pdl\drivers/peripheral/gpio/cy_gpio.h **** * 
  28:Generated_Source\PSoC6\pdl\drivers/peripheral/gpio/cy_gpio.h **** * - Single pin configuration is performed by using \ref Cy_GPIO_Pin_FastInit 
  29:Generated_Source\PSoC6\pdl\drivers/peripheral/gpio/cy_gpio.h **** *   (provide specific values) or \ref Cy_GPIO_Pin_Init (provide a filled
  30:Generated_Source\PSoC6\pdl\drivers/peripheral/gpio/cy_gpio.h **** *   cy_stc_gpio_pin_config_t structure).
  31:Generated_Source\PSoC6\pdl\drivers/peripheral/gpio/cy_gpio.h **** * - An entire port can be configured using \ref Cy_GPIO_Port_Init. Provide a filled 
  32:Generated_Source\PSoC6\pdl\drivers/peripheral/gpio/cy_gpio.h **** *   cy_stc_gpio_prt_config_t structure. The values in the structure are 
  33:Generated_Source\PSoC6\pdl\drivers/peripheral/gpio/cy_gpio.h **** *   bitfields representing the desired value for each pin in the port.
ARM GAS  C:\Users\charl\AppData\Local\Temp\ccXtIxtO.s 			page 3


  34:Generated_Source\PSoC6\pdl\drivers/peripheral/gpio/cy_gpio.h **** * - Pin configuration and management is based on the port address and pin number.
  35:Generated_Source\PSoC6\pdl\drivers/peripheral/gpio/cy_gpio.h **** *   \ref Cy_GPIO_PortToAddr function can optionally be used to calculate the port
  36:Generated_Source\PSoC6\pdl\drivers/peripheral/gpio/cy_gpio.h **** *   address from the port number at run-time.
  37:Generated_Source\PSoC6\pdl\drivers/peripheral/gpio/cy_gpio.h **** *
  38:Generated_Source\PSoC6\pdl\drivers/peripheral/gpio/cy_gpio.h **** * Once the pin/port initialization is complete, each pin can be accessed by 
  39:Generated_Source\PSoC6\pdl\drivers/peripheral/gpio/cy_gpio.h **** * specifying the port (GPIO_PRT_Type) and the pin (0-7) in the provided API 
  40:Generated_Source\PSoC6\pdl\drivers/peripheral/gpio/cy_gpio.h **** * functions.
  41:Generated_Source\PSoC6\pdl\drivers/peripheral/gpio/cy_gpio.h **** *
  42:Generated_Source\PSoC6\pdl\drivers/peripheral/gpio/cy_gpio.h **** * \section group_gpio_configuration Configuration Considerations
  43:Generated_Source\PSoC6\pdl\drivers/peripheral/gpio/cy_gpio.h **** *
  44:Generated_Source\PSoC6\pdl\drivers/peripheral/gpio/cy_gpio.h **** * 1. Pin multiplexing is controlled through the High-Speed IO Matrix (HSIOM) selection.
  45:Generated_Source\PSoC6\pdl\drivers/peripheral/gpio/cy_gpio.h **** *    This allows the pin to connect to signal sources/sinks throughout the device,
  46:Generated_Source\PSoC6\pdl\drivers/peripheral/gpio/cy_gpio.h **** *    as defined by the pin HSIOM selection options (en_hsiom_sel_t).
  47:Generated_Source\PSoC6\pdl\drivers/peripheral/gpio/cy_gpio.h **** * 2. All pins are initialized to High-Z drive mode with HSIOM connected to CPU (SW
  48:Generated_Source\PSoC6\pdl\drivers/peripheral/gpio/cy_gpio.h **** *    control digital pin only) at Power-On-Reset(POR).
  49:Generated_Source\PSoC6\pdl\drivers/peripheral/gpio/cy_gpio.h **** * 3. Some API functions perform read-modify-write operations on shared port
  50:Generated_Source\PSoC6\pdl\drivers/peripheral/gpio/cy_gpio.h **** *    registers. These functions are not thread safe and care must be taken when
  51:Generated_Source\PSoC6\pdl\drivers/peripheral/gpio/cy_gpio.h **** *    called by the application.
  52:Generated_Source\PSoC6\pdl\drivers/peripheral/gpio/cy_gpio.h **** *
  53:Generated_Source\PSoC6\pdl\drivers/peripheral/gpio/cy_gpio.h **** * Multiple pins on a port can be updated using direct port register writes with an
  54:Generated_Source\PSoC6\pdl\drivers/peripheral/gpio/cy_gpio.h **** * appropriate port mask. An example is shown below, highlighting the different ways of 
  55:Generated_Source\PSoC6\pdl\drivers/peripheral/gpio/cy_gpio.h **** * configuring Port 1 pins using,
  56:Generated_Source\PSoC6\pdl\drivers/peripheral/gpio/cy_gpio.h **** * 
  57:Generated_Source\PSoC6\pdl\drivers/peripheral/gpio/cy_gpio.h **** * - Port output data register
  58:Generated_Source\PSoC6\pdl\drivers/peripheral/gpio/cy_gpio.h **** * - Port output data set register
  59:Generated_Source\PSoC6\pdl\drivers/peripheral/gpio/cy_gpio.h **** * - Port output data clear register
  60:Generated_Source\PSoC6\pdl\drivers/peripheral/gpio/cy_gpio.h **** *
  61:Generated_Source\PSoC6\pdl\drivers/peripheral/gpio/cy_gpio.h **** * \snippet gpio/gpio_v1_10_sut_01.cydsn/main_cm4.c Cy_GPIO_Snippet
  62:Generated_Source\PSoC6\pdl\drivers/peripheral/gpio/cy_gpio.h **** *
  63:Generated_Source\PSoC6\pdl\drivers/peripheral/gpio/cy_gpio.h **** * \section group_gpio_more_information More Information
  64:Generated_Source\PSoC6\pdl\drivers/peripheral/gpio/cy_gpio.h **** *
  65:Generated_Source\PSoC6\pdl\drivers/peripheral/gpio/cy_gpio.h **** * Refer to the technical reference manual (TRM) and the device datasheet.
  66:Generated_Source\PSoC6\pdl\drivers/peripheral/gpio/cy_gpio.h **** *
  67:Generated_Source\PSoC6\pdl\drivers/peripheral/gpio/cy_gpio.h **** * \section group_gpio_MISRA MISRA-C Compliance]
  68:Generated_Source\PSoC6\pdl\drivers/peripheral/gpio/cy_gpio.h **** * <table class="doxtable">
  69:Generated_Source\PSoC6\pdl\drivers/peripheral/gpio/cy_gpio.h **** *   <tr>
  70:Generated_Source\PSoC6\pdl\drivers/peripheral/gpio/cy_gpio.h **** *     <th>MISRA Rule</th>
  71:Generated_Source\PSoC6\pdl\drivers/peripheral/gpio/cy_gpio.h **** *     <th>Rule Class (Required/Advisory)</th>
  72:Generated_Source\PSoC6\pdl\drivers/peripheral/gpio/cy_gpio.h **** *     <th>Rule Description</th>
  73:Generated_Source\PSoC6\pdl\drivers/peripheral/gpio/cy_gpio.h **** *     <th>Description of Deviation(s)</th>
  74:Generated_Source\PSoC6\pdl\drivers/peripheral/gpio/cy_gpio.h **** *   </tr>
  75:Generated_Source\PSoC6\pdl\drivers/peripheral/gpio/cy_gpio.h **** *   <tr>
  76:Generated_Source\PSoC6\pdl\drivers/peripheral/gpio/cy_gpio.h **** *     <td>16.7</td>
  77:Generated_Source\PSoC6\pdl\drivers/peripheral/gpio/cy_gpio.h **** *     <td>A</td>
  78:Generated_Source\PSoC6\pdl\drivers/peripheral/gpio/cy_gpio.h **** *     <td>A pointer parameter in a function prototype should be declared as pointer 
  79:Generated_Source\PSoC6\pdl\drivers/peripheral/gpio/cy_gpio.h **** *         to const if the pointer is not used to modify the addressed object.</td>
  80:Generated_Source\PSoC6\pdl\drivers/peripheral/gpio/cy_gpio.h **** *     <td>The objects pointed to by the base addresses of the GPIO port are not always modified.
  81:Generated_Source\PSoC6\pdl\drivers/peripheral/gpio/cy_gpio.h **** *         While a const qualifier can be used in select scenarios, it brings little benefit
  82:Generated_Source\PSoC6\pdl\drivers/peripheral/gpio/cy_gpio.h **** *         in adding this to the affected functions. </td>
  83:Generated_Source\PSoC6\pdl\drivers/peripheral/gpio/cy_gpio.h **** *   </tr>
  84:Generated_Source\PSoC6\pdl\drivers/peripheral/gpio/cy_gpio.h **** * </table>
  85:Generated_Source\PSoC6\pdl\drivers/peripheral/gpio/cy_gpio.h **** *
  86:Generated_Source\PSoC6\pdl\drivers/peripheral/gpio/cy_gpio.h **** * \section group_gpio_changelog Changelog
  87:Generated_Source\PSoC6\pdl\drivers/peripheral/gpio/cy_gpio.h **** * <table class="doxtable">
  88:Generated_Source\PSoC6\pdl\drivers/peripheral/gpio/cy_gpio.h **** *   <tr><th>Version</th><th>Changes</th><th>Reason for Change</th></tr>
  89:Generated_Source\PSoC6\pdl\drivers/peripheral/gpio/cy_gpio.h **** *   <tr>
  90:Generated_Source\PSoC6\pdl\drivers/peripheral/gpio/cy_gpio.h **** *     <td>1.10.1</td>
ARM GAS  C:\Users\charl\AppData\Local\Temp\ccXtIxtO.s 			page 4


  91:Generated_Source\PSoC6\pdl\drivers/peripheral/gpio/cy_gpio.h **** *     <td>Updated description for the functions: \ref Cy_GPIO_GetInterruptStatus, 
  92:Generated_Source\PSoC6\pdl\drivers/peripheral/gpio/cy_gpio.h **** *         \ref Cy_GPIO_GetInterruptMask, \ref Cy_GPIO_GetInterruptStatusMasked.
  93:Generated_Source\PSoC6\pdl\drivers/peripheral/gpio/cy_gpio.h **** *         Minor documentation edits.
  94:Generated_Source\PSoC6\pdl\drivers/peripheral/gpio/cy_gpio.h **** *     </td>
  95:Generated_Source\PSoC6\pdl\drivers/peripheral/gpio/cy_gpio.h **** *     <td>Documentation update and clarification</td>
  96:Generated_Source\PSoC6\pdl\drivers/peripheral/gpio/cy_gpio.h **** *   </tr>
  97:Generated_Source\PSoC6\pdl\drivers/peripheral/gpio/cy_gpio.h **** *   <tr>
  98:Generated_Source\PSoC6\pdl\drivers/peripheral/gpio/cy_gpio.h **** *     <td>1.10</td>
  99:Generated_Source\PSoC6\pdl\drivers/peripheral/gpio/cy_gpio.h **** *     <td>Added input parameter validation to the API functions</td>
 100:Generated_Source\PSoC6\pdl\drivers/peripheral/gpio/cy_gpio.h **** *     <td></td>
 101:Generated_Source\PSoC6\pdl\drivers/peripheral/gpio/cy_gpio.h **** *   </tr>
 102:Generated_Source\PSoC6\pdl\drivers/peripheral/gpio/cy_gpio.h **** *   <tr>
 103:Generated_Source\PSoC6\pdl\drivers/peripheral/gpio/cy_gpio.h **** *     <td>1.0</td>
 104:Generated_Source\PSoC6\pdl\drivers/peripheral/gpio/cy_gpio.h **** *     <td>Initial version</td>
 105:Generated_Source\PSoC6\pdl\drivers/peripheral/gpio/cy_gpio.h **** *     <td></td>
 106:Generated_Source\PSoC6\pdl\drivers/peripheral/gpio/cy_gpio.h **** *   </tr>
 107:Generated_Source\PSoC6\pdl\drivers/peripheral/gpio/cy_gpio.h **** * </table>
 108:Generated_Source\PSoC6\pdl\drivers/peripheral/gpio/cy_gpio.h **** *
 109:Generated_Source\PSoC6\pdl\drivers/peripheral/gpio/cy_gpio.h **** * \defgroup group_gpio_macros Macros
 110:Generated_Source\PSoC6\pdl\drivers/peripheral/gpio/cy_gpio.h **** * \defgroup group_gpio_functions Functions
 111:Generated_Source\PSoC6\pdl\drivers/peripheral/gpio/cy_gpio.h **** * \{
 112:Generated_Source\PSoC6\pdl\drivers/peripheral/gpio/cy_gpio.h **** *   \defgroup group_gpio_functions_init       Initialization Functions
 113:Generated_Source\PSoC6\pdl\drivers/peripheral/gpio/cy_gpio.h **** *   \defgroup group_gpio_functions_gpio       GPIO Functions
 114:Generated_Source\PSoC6\pdl\drivers/peripheral/gpio/cy_gpio.h **** *   \defgroup group_gpio_functions_sio        SIO Functions
 115:Generated_Source\PSoC6\pdl\drivers/peripheral/gpio/cy_gpio.h **** *   \defgroup group_gpio_functions_interrupt  Port Interrupt Functions
 116:Generated_Source\PSoC6\pdl\drivers/peripheral/gpio/cy_gpio.h **** * \}
 117:Generated_Source\PSoC6\pdl\drivers/peripheral/gpio/cy_gpio.h **** * \defgroup group_gpio_data_structures Data Structures
 118:Generated_Source\PSoC6\pdl\drivers/peripheral/gpio/cy_gpio.h **** * \defgroup group_gpio_enums Enumerated Types
 119:Generated_Source\PSoC6\pdl\drivers/peripheral/gpio/cy_gpio.h **** */
 120:Generated_Source\PSoC6\pdl\drivers/peripheral/gpio/cy_gpio.h **** 
 121:Generated_Source\PSoC6\pdl\drivers/peripheral/gpio/cy_gpio.h **** #if !defined(CY_GPIO_H)
 122:Generated_Source\PSoC6\pdl\drivers/peripheral/gpio/cy_gpio.h **** #define CY_GPIO_H
 123:Generated_Source\PSoC6\pdl\drivers/peripheral/gpio/cy_gpio.h **** 
 124:Generated_Source\PSoC6\pdl\drivers/peripheral/gpio/cy_gpio.h **** #include <stddef.h>
 125:Generated_Source\PSoC6\pdl\drivers/peripheral/gpio/cy_gpio.h **** #include "syslib/cy_syslib.h"
 126:Generated_Source\PSoC6\pdl\drivers/peripheral/gpio/cy_gpio.h **** #include "cy_device_headers.h"
 127:Generated_Source\PSoC6\pdl\drivers/peripheral/gpio/cy_gpio.h **** 
 128:Generated_Source\PSoC6\pdl\drivers/peripheral/gpio/cy_gpio.h **** #if defined(__cplusplus)
 129:Generated_Source\PSoC6\pdl\drivers/peripheral/gpio/cy_gpio.h **** extern "C" {
 130:Generated_Source\PSoC6\pdl\drivers/peripheral/gpio/cy_gpio.h **** #endif
 131:Generated_Source\PSoC6\pdl\drivers/peripheral/gpio/cy_gpio.h **** 
 132:Generated_Source\PSoC6\pdl\drivers/peripheral/gpio/cy_gpio.h **** /** \addtogroup group_gpio_macros
 133:Generated_Source\PSoC6\pdl\drivers/peripheral/gpio/cy_gpio.h **** * \{
 134:Generated_Source\PSoC6\pdl\drivers/peripheral/gpio/cy_gpio.h **** */
 135:Generated_Source\PSoC6\pdl\drivers/peripheral/gpio/cy_gpio.h **** 
 136:Generated_Source\PSoC6\pdl\drivers/peripheral/gpio/cy_gpio.h **** /** Driver major version */
 137:Generated_Source\PSoC6\pdl\drivers/peripheral/gpio/cy_gpio.h **** #define CY_GPIO_DRV_VERSION_MAJOR       1
 138:Generated_Source\PSoC6\pdl\drivers/peripheral/gpio/cy_gpio.h **** 
 139:Generated_Source\PSoC6\pdl\drivers/peripheral/gpio/cy_gpio.h **** /** Driver minor version */
 140:Generated_Source\PSoC6\pdl\drivers/peripheral/gpio/cy_gpio.h **** #define CY_GPIO_DRV_VERSION_MINOR       10
 141:Generated_Source\PSoC6\pdl\drivers/peripheral/gpio/cy_gpio.h **** 
 142:Generated_Source\PSoC6\pdl\drivers/peripheral/gpio/cy_gpio.h **** /** GPIO driver ID */
 143:Generated_Source\PSoC6\pdl\drivers/peripheral/gpio/cy_gpio.h **** #define CY_GPIO_ID CY_PDL_DRV_ID(0x16u)
 144:Generated_Source\PSoC6\pdl\drivers/peripheral/gpio/cy_gpio.h **** 
 145:Generated_Source\PSoC6\pdl\drivers/peripheral/gpio/cy_gpio.h **** /** \} group_gpio_macros */
 146:Generated_Source\PSoC6\pdl\drivers/peripheral/gpio/cy_gpio.h **** 
 147:Generated_Source\PSoC6\pdl\drivers/peripheral/gpio/cy_gpio.h **** 
ARM GAS  C:\Users\charl\AppData\Local\Temp\ccXtIxtO.s 			page 5


 148:Generated_Source\PSoC6\pdl\drivers/peripheral/gpio/cy_gpio.h **** /***************************************
 149:Generated_Source\PSoC6\pdl\drivers/peripheral/gpio/cy_gpio.h **** *       Enumerations
 150:Generated_Source\PSoC6\pdl\drivers/peripheral/gpio/cy_gpio.h **** ***************************************/
 151:Generated_Source\PSoC6\pdl\drivers/peripheral/gpio/cy_gpio.h **** /**
 152:Generated_Source\PSoC6\pdl\drivers/peripheral/gpio/cy_gpio.h **** * \addtogroup group_gpio_enums
 153:Generated_Source\PSoC6\pdl\drivers/peripheral/gpio/cy_gpio.h **** * \{
 154:Generated_Source\PSoC6\pdl\drivers/peripheral/gpio/cy_gpio.h **** */
 155:Generated_Source\PSoC6\pdl\drivers/peripheral/gpio/cy_gpio.h **** 
 156:Generated_Source\PSoC6\pdl\drivers/peripheral/gpio/cy_gpio.h **** /**
 157:Generated_Source\PSoC6\pdl\drivers/peripheral/gpio/cy_gpio.h **** * GPIO Driver error codes
 158:Generated_Source\PSoC6\pdl\drivers/peripheral/gpio/cy_gpio.h **** */
 159:Generated_Source\PSoC6\pdl\drivers/peripheral/gpio/cy_gpio.h **** typedef enum 
 160:Generated_Source\PSoC6\pdl\drivers/peripheral/gpio/cy_gpio.h **** {
 161:Generated_Source\PSoC6\pdl\drivers/peripheral/gpio/cy_gpio.h ****     CY_GPIO_SUCCESS   = 0x00u,                                    /**< Returned successful */
 162:Generated_Source\PSoC6\pdl\drivers/peripheral/gpio/cy_gpio.h ****     CY_GPIO_BAD_PARAM = CY_GPIO_ID | CY_PDL_STATUS_ERROR | 0x01u, /**< Bad parameter was passed */
 163:Generated_Source\PSoC6\pdl\drivers/peripheral/gpio/cy_gpio.h **** } cy_en_gpio_status_t;
 164:Generated_Source\PSoC6\pdl\drivers/peripheral/gpio/cy_gpio.h **** 
 165:Generated_Source\PSoC6\pdl\drivers/peripheral/gpio/cy_gpio.h **** /** \} group_gpio_enums */
 166:Generated_Source\PSoC6\pdl\drivers/peripheral/gpio/cy_gpio.h **** 
 167:Generated_Source\PSoC6\pdl\drivers/peripheral/gpio/cy_gpio.h **** 
 168:Generated_Source\PSoC6\pdl\drivers/peripheral/gpio/cy_gpio.h **** /***************************************
 169:Generated_Source\PSoC6\pdl\drivers/peripheral/gpio/cy_gpio.h **** *       Configuration Structures
 170:Generated_Source\PSoC6\pdl\drivers/peripheral/gpio/cy_gpio.h **** ***************************************/
 171:Generated_Source\PSoC6\pdl\drivers/peripheral/gpio/cy_gpio.h **** 
 172:Generated_Source\PSoC6\pdl\drivers/peripheral/gpio/cy_gpio.h **** /**
 173:Generated_Source\PSoC6\pdl\drivers/peripheral/gpio/cy_gpio.h **** * \addtogroup group_gpio_data_structures
 174:Generated_Source\PSoC6\pdl\drivers/peripheral/gpio/cy_gpio.h **** * \{
 175:Generated_Source\PSoC6\pdl\drivers/peripheral/gpio/cy_gpio.h **** */
 176:Generated_Source\PSoC6\pdl\drivers/peripheral/gpio/cy_gpio.h **** 
 177:Generated_Source\PSoC6\pdl\drivers/peripheral/gpio/cy_gpio.h **** /** This structure is used to initialize a port of GPIO pins */
 178:Generated_Source\PSoC6\pdl\drivers/peripheral/gpio/cy_gpio.h **** typedef struct {
 179:Generated_Source\PSoC6\pdl\drivers/peripheral/gpio/cy_gpio.h ****     uint32_t out;           /**< Initial output data for the IO pins in the port */
 180:Generated_Source\PSoC6\pdl\drivers/peripheral/gpio/cy_gpio.h ****     uint32_t intrMask;      /**< Interrupt enable mask for the port interrupt */
 181:Generated_Source\PSoC6\pdl\drivers/peripheral/gpio/cy_gpio.h ****     uint32_t intrCfg;       /**< Port pin interrupt edge detection configuration */
 182:Generated_Source\PSoC6\pdl\drivers/peripheral/gpio/cy_gpio.h ****     uint32_t cfg;           /**< Port pin drive modes and input buffer enable configuration */
 183:Generated_Source\PSoC6\pdl\drivers/peripheral/gpio/cy_gpio.h ****     uint32_t cfgIn;         /**< Port pin input buffer configuration */
 184:Generated_Source\PSoC6\pdl\drivers/peripheral/gpio/cy_gpio.h ****     uint32_t cfgOut;        /**< Port pin output buffer configuration */
 185:Generated_Source\PSoC6\pdl\drivers/peripheral/gpio/cy_gpio.h ****     uint32_t cfgSIO;        /**< Port SIO pins configuration */
 186:Generated_Source\PSoC6\pdl\drivers/peripheral/gpio/cy_gpio.h ****     uint32_t sel0Active;    /**< HSIOM selection for port pins 0,1,2,3 */
 187:Generated_Source\PSoC6\pdl\drivers/peripheral/gpio/cy_gpio.h ****     uint32_t sel1Active;    /**< HSIOM selection for port pins 4,5,6,7 */
 188:Generated_Source\PSoC6\pdl\drivers/peripheral/gpio/cy_gpio.h **** } cy_stc_gpio_prt_config_t;
 189:Generated_Source\PSoC6\pdl\drivers/peripheral/gpio/cy_gpio.h **** 
 190:Generated_Source\PSoC6\pdl\drivers/peripheral/gpio/cy_gpio.h **** /** This structure is used to initialize a single GPIO pin */
 191:Generated_Source\PSoC6\pdl\drivers/peripheral/gpio/cy_gpio.h **** typedef struct {
 192:Generated_Source\PSoC6\pdl\drivers/peripheral/gpio/cy_gpio.h ****     uint32_t outVal;         /**< Pin output state */
 193:Generated_Source\PSoC6\pdl\drivers/peripheral/gpio/cy_gpio.h ****     uint32_t driveMode;      /**< Drive mode */
 194:Generated_Source\PSoC6\pdl\drivers/peripheral/gpio/cy_gpio.h ****     en_hsiom_sel_t hsiom;   /**< HSIOM selection */
 195:Generated_Source\PSoC6\pdl\drivers/peripheral/gpio/cy_gpio.h ****     uint32_t intEdge;        /**< Interrupt Edge type */
 196:Generated_Source\PSoC6\pdl\drivers/peripheral/gpio/cy_gpio.h ****     uint32_t intMask;        /**< Interrupt enable mask */
 197:Generated_Source\PSoC6\pdl\drivers/peripheral/gpio/cy_gpio.h ****     uint32_t vtrip;          /**< Input buffer voltage trip type */
 198:Generated_Source\PSoC6\pdl\drivers/peripheral/gpio/cy_gpio.h ****     uint32_t slewRate;       /**< Output buffer slew rate */
 199:Generated_Source\PSoC6\pdl\drivers/peripheral/gpio/cy_gpio.h ****     uint32_t driveSel;       /**< Drive strength */
 200:Generated_Source\PSoC6\pdl\drivers/peripheral/gpio/cy_gpio.h ****     uint32_t vregEn;         /**< SIO pair output buffer mode */
 201:Generated_Source\PSoC6\pdl\drivers/peripheral/gpio/cy_gpio.h ****     uint32_t ibufMode;       /**< SIO pair input buffer mode */
 202:Generated_Source\PSoC6\pdl\drivers/peripheral/gpio/cy_gpio.h ****     uint32_t vtripSel;       /**< SIO pair input buffer trip point */
 203:Generated_Source\PSoC6\pdl\drivers/peripheral/gpio/cy_gpio.h ****     uint32_t vrefSel;        /**< SIO pair reference voltage for input buffer trip point */
 204:Generated_Source\PSoC6\pdl\drivers/peripheral/gpio/cy_gpio.h ****     uint32_t vohSel;         /**< SIO pair regulated voltage output level */
ARM GAS  C:\Users\charl\AppData\Local\Temp\ccXtIxtO.s 			page 6


 205:Generated_Source\PSoC6\pdl\drivers/peripheral/gpio/cy_gpio.h **** } cy_stc_gpio_pin_config_t;
 206:Generated_Source\PSoC6\pdl\drivers/peripheral/gpio/cy_gpio.h **** 
 207:Generated_Source\PSoC6\pdl\drivers/peripheral/gpio/cy_gpio.h **** /** \} group_gpio_data_structures */
 208:Generated_Source\PSoC6\pdl\drivers/peripheral/gpio/cy_gpio.h **** 
 209:Generated_Source\PSoC6\pdl\drivers/peripheral/gpio/cy_gpio.h **** /***************************************
 210:Generated_Source\PSoC6\pdl\drivers/peripheral/gpio/cy_gpio.h **** *        Constants
 211:Generated_Source\PSoC6\pdl\drivers/peripheral/gpio/cy_gpio.h **** ***************************************/
 212:Generated_Source\PSoC6\pdl\drivers/peripheral/gpio/cy_gpio.h **** 
 213:Generated_Source\PSoC6\pdl\drivers/peripheral/gpio/cy_gpio.h **** /** \cond INTERNAL */
 214:Generated_Source\PSoC6\pdl\drivers/peripheral/gpio/cy_gpio.h **** 
 215:Generated_Source\PSoC6\pdl\drivers/peripheral/gpio/cy_gpio.h **** /* General Constants */
 216:Generated_Source\PSoC6\pdl\drivers/peripheral/gpio/cy_gpio.h **** #define CY_GPIO_PRT_HALF                       (4UL)      /**< Half-way point of a GPIO port */
 217:Generated_Source\PSoC6\pdl\drivers/peripheral/gpio/cy_gpio.h **** #define CY_GPIO_PRT_DEINIT                     (0UL)      /**< De-init value for port registers */
 218:Generated_Source\PSoC6\pdl\drivers/peripheral/gpio/cy_gpio.h **** 
 219:Generated_Source\PSoC6\pdl\drivers/peripheral/gpio/cy_gpio.h **** /* GPIO Masks */
 220:Generated_Source\PSoC6\pdl\drivers/peripheral/gpio/cy_gpio.h **** #define CY_GPIO_HSIOM_MASK                     (0x1FUL)   /**< HSIOM selection mask */
 221:Generated_Source\PSoC6\pdl\drivers/peripheral/gpio/cy_gpio.h **** #define CY_GPIO_OUT_MASK                       (0x01UL)   /**< Single pin mask for OUT register */
 222:Generated_Source\PSoC6\pdl\drivers/peripheral/gpio/cy_gpio.h **** #define CY_GPIO_IN_MASK                        (0x01UL)   /**< Single pin mask for IN register */
 223:Generated_Source\PSoC6\pdl\drivers/peripheral/gpio/cy_gpio.h **** #define CY_GPIO_CFG_DM_MASK                    (0x0FUL)   /**< Single pin mask for drive mode in CF
 224:Generated_Source\PSoC6\pdl\drivers/peripheral/gpio/cy_gpio.h **** #define CY_GPIO_CFG_IN_VTRIP_SEL_MASK          (0x01UL)   /**< Single pin mask for VTRIP selection 
 225:Generated_Source\PSoC6\pdl\drivers/peripheral/gpio/cy_gpio.h **** #define CY_GPIO_CFG_OUT_SLOW_MASK              (0x01UL)   /**< Single pin mask for slew rate in CFG
 226:Generated_Source\PSoC6\pdl\drivers/peripheral/gpio/cy_gpio.h **** #define CY_GPIO_CFG_OUT_DRIVE_SEL_MASK         (0x03UL)   /**< Single pin mask for drive strength i
 227:Generated_Source\PSoC6\pdl\drivers/peripheral/gpio/cy_gpio.h **** #define CY_GPIO_INTR_STATUS_MASK               (0x01UL)   /**< Single pin mask for interrupt status
 228:Generated_Source\PSoC6\pdl\drivers/peripheral/gpio/cy_gpio.h **** #define CY_GPIO_INTR_EN_MASK                   (0x01UL)   /**< Single pin mask for interrupt status
 229:Generated_Source\PSoC6\pdl\drivers/peripheral/gpio/cy_gpio.h **** #define CY_GPIO_INTR_MASKED_MASK               (0x01UL)   /**< Single pin mask for masked interrupt
 230:Generated_Source\PSoC6\pdl\drivers/peripheral/gpio/cy_gpio.h **** #define CY_GPIO_INTR_SET_MASK                  (0x01UL)   /**< Single pin mask for setting the inte
 231:Generated_Source\PSoC6\pdl\drivers/peripheral/gpio/cy_gpio.h **** #define CY_GPIO_INTR_EDGE_MASK                 (0x03UL)   /**< Single pin mask for interrupt edge t
 232:Generated_Source\PSoC6\pdl\drivers/peripheral/gpio/cy_gpio.h **** #define CY_GPIO_INTR_FLT_EDGE_MASK             (0x07UL)   /**< Single pin mask for setting filtered
 233:Generated_Source\PSoC6\pdl\drivers/peripheral/gpio/cy_gpio.h **** 
 234:Generated_Source\PSoC6\pdl\drivers/peripheral/gpio/cy_gpio.h **** /* SIO Masks */
 235:Generated_Source\PSoC6\pdl\drivers/peripheral/gpio/cy_gpio.h **** #define CY_GPIO_VREG_EN_MASK                   (0x01UL)   /**< Single SIO pin mask for voltage regu
 236:Generated_Source\PSoC6\pdl\drivers/peripheral/gpio/cy_gpio.h **** #define CY_GPIO_IBUF_MASK                      (0x01UL)   /**< Single SIO pin mask for input buffer
 237:Generated_Source\PSoC6\pdl\drivers/peripheral/gpio/cy_gpio.h **** #define CY_GPIO_IBUF_SHIFT                     (0x01UL)   /**< Single SIO pin shift for input buffe
 238:Generated_Source\PSoC6\pdl\drivers/peripheral/gpio/cy_gpio.h **** #define CY_GPIO_VTRIP_SEL_MASK                 (0x01UL)   /**< Single SIO pin mask for the input bu
 239:Generated_Source\PSoC6\pdl\drivers/peripheral/gpio/cy_gpio.h **** #define CY_GPIO_VTRIP_SEL_SHIFT                (0x02UL)   /**< Single SIO pin shift for the input b
 240:Generated_Source\PSoC6\pdl\drivers/peripheral/gpio/cy_gpio.h **** #define CY_GPIO_VREF_SEL_MASK                  (0x03UL)   /**< Single SIO pin mask for voltage refe
 241:Generated_Source\PSoC6\pdl\drivers/peripheral/gpio/cy_gpio.h **** #define CY_GPIO_VREF_SEL_SHIFT                 (0x03UL)   /**< Single SIO pin shift for voltage ref
 242:Generated_Source\PSoC6\pdl\drivers/peripheral/gpio/cy_gpio.h **** #define CY_GPIO_VOH_SEL_MASK                   (0x07UL)   /**< Single SIO pin mask for VOH */
 243:Generated_Source\PSoC6\pdl\drivers/peripheral/gpio/cy_gpio.h **** #define CY_GPIO_VOH_SEL_SHIFT                  (0x05UL)   /**< Single SIO pin shift for VOH */
 244:Generated_Source\PSoC6\pdl\drivers/peripheral/gpio/cy_gpio.h **** 
 245:Generated_Source\PSoC6\pdl\drivers/peripheral/gpio/cy_gpio.h **** /* Special mask for SIO pin pair setting */
 246:Generated_Source\PSoC6\pdl\drivers/peripheral/gpio/cy_gpio.h **** #define CY_GPIO_SIO_ODD_PIN_MASK               (0x00FEUL) /**< SIO pin pair selection mask */
 247:Generated_Source\PSoC6\pdl\drivers/peripheral/gpio/cy_gpio.h **** #define CY_GPIO_SIO_PIN_MASK                   (0x00FFUL) /**< SIO pin pair mask */
 248:Generated_Source\PSoC6\pdl\drivers/peripheral/gpio/cy_gpio.h **** 
 249:Generated_Source\PSoC6\pdl\drivers/peripheral/gpio/cy_gpio.h **** /* Offsets */
 250:Generated_Source\PSoC6\pdl\drivers/peripheral/gpio/cy_gpio.h **** #define CY_GPIO_HSIOM_OFFSET                   (3UL)      /**< Offset for HSIOM */
 251:Generated_Source\PSoC6\pdl\drivers/peripheral/gpio/cy_gpio.h **** #define CY_GPIO_DRIVE_MODE_OFFSET              (2UL)      /**< Offset for Drive mode */
 252:Generated_Source\PSoC6\pdl\drivers/peripheral/gpio/cy_gpio.h **** #define CY_GPIO_INBUF_OFFSET                   (3UL)      /**< Offset for input buffer */
 253:Generated_Source\PSoC6\pdl\drivers/peripheral/gpio/cy_gpio.h **** #define CY_GPIO_CFG_OUT_DRIVE_OFFSET           (16UL)     /**< Offset for drive strength */
 254:Generated_Source\PSoC6\pdl\drivers/peripheral/gpio/cy_gpio.h **** #define CY_GPIO_INTR_CFG_OFFSET                (1UL)      /**< Offset for interrupt config */
 255:Generated_Source\PSoC6\pdl\drivers/peripheral/gpio/cy_gpio.h **** #define CY_GPIO_INTR_FILT_OFFSET               (18UL)     /**< Offset for filtered interrupt config
 256:Generated_Source\PSoC6\pdl\drivers/peripheral/gpio/cy_gpio.h **** #define CY_GPIO_CFG_SIO_OFFSET                 (2UL)      /**< Offset for SIO config */
 257:Generated_Source\PSoC6\pdl\drivers/peripheral/gpio/cy_gpio.h **** 
 258:Generated_Source\PSoC6\pdl\drivers/peripheral/gpio/cy_gpio.h **** /* Parameter validation constants */
 259:Generated_Source\PSoC6\pdl\drivers/peripheral/gpio/cy_gpio.h **** #define CY_GPIO_PINS_MAX                       (8UL)      /**< Number of pins in the port */
 260:Generated_Source\PSoC6\pdl\drivers/peripheral/gpio/cy_gpio.h **** #define CY_GPIO_PRT_PINS_MASK                  (0x0000000FFUL)
 261:Generated_Source\PSoC6\pdl\drivers/peripheral/gpio/cy_gpio.h **** #define CY_GPIO_PRT_INTR_CFG_EDGE_SEL_MASK     (GPIO_PRT_INTR_CFG_EDGE0_SEL_Msk | \
ARM GAS  C:\Users\charl\AppData\Local\Temp\ccXtIxtO.s 			page 7


 262:Generated_Source\PSoC6\pdl\drivers/peripheral/gpio/cy_gpio.h ****                                                 GPIO_PRT_INTR_CFG_EDGE1_SEL_Msk | \
 263:Generated_Source\PSoC6\pdl\drivers/peripheral/gpio/cy_gpio.h ****                                                 GPIO_PRT_INTR_CFG_EDGE2_SEL_Msk | \
 264:Generated_Source\PSoC6\pdl\drivers/peripheral/gpio/cy_gpio.h ****                                                 GPIO_PRT_INTR_CFG_EDGE3_SEL_Msk | \
 265:Generated_Source\PSoC6\pdl\drivers/peripheral/gpio/cy_gpio.h ****                                                 GPIO_PRT_INTR_CFG_EDGE4_SEL_Msk | \
 266:Generated_Source\PSoC6\pdl\drivers/peripheral/gpio/cy_gpio.h ****                                                 GPIO_PRT_INTR_CFG_EDGE5_SEL_Msk | \
 267:Generated_Source\PSoC6\pdl\drivers/peripheral/gpio/cy_gpio.h ****                                                 GPIO_PRT_INTR_CFG_EDGE6_SEL_Msk | \
 268:Generated_Source\PSoC6\pdl\drivers/peripheral/gpio/cy_gpio.h ****                                                 GPIO_PRT_INTR_CFG_EDGE7_SEL_Msk)            
 269:Generated_Source\PSoC6\pdl\drivers/peripheral/gpio/cy_gpio.h **** #define CY_GPIO_PRT_INTR_CFG_RANGE_MASK        (CY_GPIO_PRT_INTR_CFG_EDGE_SEL_MASK | \
 270:Generated_Source\PSoC6\pdl\drivers/peripheral/gpio/cy_gpio.h ****                                                 GPIO_PRT_INTR_CFG_FLT_EDGE_SEL_Msk | \
 271:Generated_Source\PSoC6\pdl\drivers/peripheral/gpio/cy_gpio.h ****                                                 GPIO_PRT_INTR_CFG_FLT_SEL_Msk)
 272:Generated_Source\PSoC6\pdl\drivers/peripheral/gpio/cy_gpio.h **** #define CY_GPIO_PRT_INT_MASK_MASK              (0x0000001FFUL)
 273:Generated_Source\PSoC6\pdl\drivers/peripheral/gpio/cy_gpio.h **** #define CY_GPIO_PRT_SEL_ACTIVE_MASK            (0x1FFFFFFFUL)
 274:Generated_Source\PSoC6\pdl\drivers/peripheral/gpio/cy_gpio.h **** 
 275:Generated_Source\PSoC6\pdl\drivers/peripheral/gpio/cy_gpio.h **** /* Parameter validation macros */
 276:Generated_Source\PSoC6\pdl\drivers/peripheral/gpio/cy_gpio.h **** #define CY_GPIO_IS_PIN_VALID(pinNum)           (CY_GPIO_PINS_MAX > (pinNum))
 277:Generated_Source\PSoC6\pdl\drivers/peripheral/gpio/cy_gpio.h **** #define CY_GPIO_IS_FILTER_PIN_VALID(pinNum)    (CY_GPIO_PINS_MAX >= (pinNum))
 278:Generated_Source\PSoC6\pdl\drivers/peripheral/gpio/cy_gpio.h **** #define CY_GPIO_IS_VALUE_VALID(outVal)         (1UL >= (outVal))
 279:Generated_Source\PSoC6\pdl\drivers/peripheral/gpio/cy_gpio.h **** #define CY_GPIO_IS_DM_VALID(driveMode)         (0U == ((driveMode) & (uint32_t)~CY_GPIO_CFG_DM_MASK
 280:Generated_Source\PSoC6\pdl\drivers/peripheral/gpio/cy_gpio.h **** 
 281:Generated_Source\PSoC6\pdl\drivers/peripheral/gpio/cy_gpio.h **** #define CY_GPIO_IS_HSIOM_VALID(hsiom)          (0U == ((hsiom) & (uint32_t)~CY_GPIO_HSIOM_MASK))
 282:Generated_Source\PSoC6\pdl\drivers/peripheral/gpio/cy_gpio.h **** 
 283:Generated_Source\PSoC6\pdl\drivers/peripheral/gpio/cy_gpio.h **** #define CY_GPIO_IS_INT_EDGE_VALID(intEdge)     ((CY_GPIO_INTR_DISABLE  == (intEdge)) || \
 284:Generated_Source\PSoC6\pdl\drivers/peripheral/gpio/cy_gpio.h ****                                                 (CY_GPIO_INTR_RISING   == (intEdge)) || \
 285:Generated_Source\PSoC6\pdl\drivers/peripheral/gpio/cy_gpio.h ****                                                 (CY_GPIO_INTR_FALLING  == (intEdge)) || \
 286:Generated_Source\PSoC6\pdl\drivers/peripheral/gpio/cy_gpio.h ****                                                 (CY_GPIO_INTR_BOTH     == (intEdge)))
 287:Generated_Source\PSoC6\pdl\drivers/peripheral/gpio/cy_gpio.h **** 
 288:Generated_Source\PSoC6\pdl\drivers/peripheral/gpio/cy_gpio.h **** #define CY_GPIO_IS_DRIVE_SEL_VALID(driveSel)   ((CY_GPIO_DRIVE_FULL    == (driveSel)) || \
 289:Generated_Source\PSoC6\pdl\drivers/peripheral/gpio/cy_gpio.h ****                                                 (CY_GPIO_DRIVE_1_2     == (driveSel)) || \
 290:Generated_Source\PSoC6\pdl\drivers/peripheral/gpio/cy_gpio.h ****                                                 (CY_GPIO_DRIVE_1_4     == (driveSel)) || \
 291:Generated_Source\PSoC6\pdl\drivers/peripheral/gpio/cy_gpio.h ****                                                 (CY_GPIO_DRIVE_1_8     == (driveSel)))
 292:Generated_Source\PSoC6\pdl\drivers/peripheral/gpio/cy_gpio.h **** 
 293:Generated_Source\PSoC6\pdl\drivers/peripheral/gpio/cy_gpio.h **** #define CY_GPIO_IS_VREF_SEL_VALID(vrefSel)     ((CY_SIO_VREF_PINREF    == (vrefSel)) || \
 294:Generated_Source\PSoC6\pdl\drivers/peripheral/gpio/cy_gpio.h ****                                                 (CY_SIO_VREF_1_2V      == (vrefSel)) || \
 295:Generated_Source\PSoC6\pdl\drivers/peripheral/gpio/cy_gpio.h ****                                                 (CY_SIO_VREF_AMUX_A    == (vrefSel)) || \
 296:Generated_Source\PSoC6\pdl\drivers/peripheral/gpio/cy_gpio.h ****                                                 (CY_SIO_VREF_AMUX_B    == (vrefSel)))
 297:Generated_Source\PSoC6\pdl\drivers/peripheral/gpio/cy_gpio.h **** 
 298:Generated_Source\PSoC6\pdl\drivers/peripheral/gpio/cy_gpio.h **** #define CY_GPIO_IS_VOH_SEL_VALID(vrefSel)      ((CY_SIO_VOH_1_00       == (vrefSel)) || \
 299:Generated_Source\PSoC6\pdl\drivers/peripheral/gpio/cy_gpio.h ****                                                 (CY_SIO_VOH_1_25       == (vrefSel)) || \
 300:Generated_Source\PSoC6\pdl\drivers/peripheral/gpio/cy_gpio.h ****                                                 (CY_SIO_VOH_1_49       == (vrefSel)) || \
 301:Generated_Source\PSoC6\pdl\drivers/peripheral/gpio/cy_gpio.h ****                                                 (CY_SIO_VOH_1_67       == (vrefSel)) || \
 302:Generated_Source\PSoC6\pdl\drivers/peripheral/gpio/cy_gpio.h ****                                                 (CY_SIO_VOH_2_08       == (vrefSel)) || \
 303:Generated_Source\PSoC6\pdl\drivers/peripheral/gpio/cy_gpio.h ****                                                 (CY_SIO_VOH_2_50       == (vrefSel)) || \
 304:Generated_Source\PSoC6\pdl\drivers/peripheral/gpio/cy_gpio.h ****                                                 (CY_SIO_VOH_2_78       == (vrefSel)) || \
 305:Generated_Source\PSoC6\pdl\drivers/peripheral/gpio/cy_gpio.h ****                                                 (CY_SIO_VOH_4_16       == (vrefSel)))
 306:Generated_Source\PSoC6\pdl\drivers/peripheral/gpio/cy_gpio.h ****                    
 307:Generated_Source\PSoC6\pdl\drivers/peripheral/gpio/cy_gpio.h **** #define CY_GPIO_IS_PIN_BIT_VALID(pinBit)       (0U == ((pinBit) & (uint32_t)~CY_GPIO_PRT_PINS_MASK)
 308:Generated_Source\PSoC6\pdl\drivers/peripheral/gpio/cy_gpio.h **** #define CY_GPIO_IS_INTR_CFG_VALID(intrCfg)     (0U == ((intrCfg) & (uint32_t)~CY_GPIO_PRT_INTR_CFG_
 309:Generated_Source\PSoC6\pdl\drivers/peripheral/gpio/cy_gpio.h **** #define CY_GPIO_IS_INTR_MASK_VALID(intrMask)   (0U == ((intrMask) & (uint32_t)~CY_GPIO_PRT_INT_MASK
 310:Generated_Source\PSoC6\pdl\drivers/peripheral/gpio/cy_gpio.h **** #define CY_GPIO_IS_SEL_ACT_VALID(selActive)    (0U == ((selActive) & (uint32_t)~CY_GPIO_PRT_SEL_ACT
 311:Generated_Source\PSoC6\pdl\drivers/peripheral/gpio/cy_gpio.h **** 
 312:Generated_Source\PSoC6\pdl\drivers/peripheral/gpio/cy_gpio.h **** /** \endcond */
 313:Generated_Source\PSoC6\pdl\drivers/peripheral/gpio/cy_gpio.h **** 
 314:Generated_Source\PSoC6\pdl\drivers/peripheral/gpio/cy_gpio.h **** 
 315:Generated_Source\PSoC6\pdl\drivers/peripheral/gpio/cy_gpio.h **** /***************************************
 316:Generated_Source\PSoC6\pdl\drivers/peripheral/gpio/cy_gpio.h **** *        Function Constants
 317:Generated_Source\PSoC6\pdl\drivers/peripheral/gpio/cy_gpio.h **** ***************************************/
 318:Generated_Source\PSoC6\pdl\drivers/peripheral/gpio/cy_gpio.h **** 
ARM GAS  C:\Users\charl\AppData\Local\Temp\ccXtIxtO.s 			page 8


 319:Generated_Source\PSoC6\pdl\drivers/peripheral/gpio/cy_gpio.h **** /**
 320:Generated_Source\PSoC6\pdl\drivers/peripheral/gpio/cy_gpio.h **** * \addtogroup group_gpio_macros
 321:Generated_Source\PSoC6\pdl\drivers/peripheral/gpio/cy_gpio.h **** * \{
 322:Generated_Source\PSoC6\pdl\drivers/peripheral/gpio/cy_gpio.h **** */
 323:Generated_Source\PSoC6\pdl\drivers/peripheral/gpio/cy_gpio.h **** 
 324:Generated_Source\PSoC6\pdl\drivers/peripheral/gpio/cy_gpio.h **** /**
 325:Generated_Source\PSoC6\pdl\drivers/peripheral/gpio/cy_gpio.h **** * \defgroup group_gpio_driveModes Pin drive mode
 326:Generated_Source\PSoC6\pdl\drivers/peripheral/gpio/cy_gpio.h **** * \{
 327:Generated_Source\PSoC6\pdl\drivers/peripheral/gpio/cy_gpio.h **** * Constants to be used for setting the drive mode of the pin.
 328:Generated_Source\PSoC6\pdl\drivers/peripheral/gpio/cy_gpio.h **** */
 329:Generated_Source\PSoC6\pdl\drivers/peripheral/gpio/cy_gpio.h **** #define CY_GPIO_DM_ANALOG                      (0x00UL) /**< \brief Analog High-Z. Input buffer off
 330:Generated_Source\PSoC6\pdl\drivers/peripheral/gpio/cy_gpio.h **** #define CY_GPIO_DM_PULLUP_IN_OFF               (0x02UL) /**< \brief Resistive Pull-Up. Input buffer
 331:Generated_Source\PSoC6\pdl\drivers/peripheral/gpio/cy_gpio.h **** #define CY_GPIO_DM_PULLDOWN_IN_OFF             (0x03UL) /**< \brief Resistive Pull-Down. Input buff
 332:Generated_Source\PSoC6\pdl\drivers/peripheral/gpio/cy_gpio.h **** #define CY_GPIO_DM_OD_DRIVESLOW_IN_OFF         (0x04UL) /**< \brief Open Drain, Drives Low. Input b
 333:Generated_Source\PSoC6\pdl\drivers/peripheral/gpio/cy_gpio.h **** #define CY_GPIO_DM_OD_DRIVESHIGH_IN_OFF        (0x05UL) /**< \brief Open Drain, Drives High. Input 
 334:Generated_Source\PSoC6\pdl\drivers/peripheral/gpio/cy_gpio.h **** #define CY_GPIO_DM_STRONG_IN_OFF               (0x06UL) /**< \brief Strong Drive. Input buffer off 
 335:Generated_Source\PSoC6\pdl\drivers/peripheral/gpio/cy_gpio.h **** #define CY_GPIO_DM_PULLUP_DOWN_IN_OFF          (0x07UL) /**< \brief Resistive Pull-Up/Down. Input b
 336:Generated_Source\PSoC6\pdl\drivers/peripheral/gpio/cy_gpio.h **** #define CY_GPIO_DM_HIGHZ                       (0x08UL) /**< \brief Digital High-Z. Input buffer on
 337:Generated_Source\PSoC6\pdl\drivers/peripheral/gpio/cy_gpio.h **** #define CY_GPIO_DM_PULLUP                      (0x0AUL) /**< \brief Resistive Pull-Up. Input buffer
 338:Generated_Source\PSoC6\pdl\drivers/peripheral/gpio/cy_gpio.h **** #define CY_GPIO_DM_PULLDOWN                    (0x0BUL) /**< \brief Resistive Pull-Down. Input buff
 339:Generated_Source\PSoC6\pdl\drivers/peripheral/gpio/cy_gpio.h **** #define CY_GPIO_DM_OD_DRIVESLOW                (0x0CUL) /**< \brief Open Drain, Drives Low. Input b
 340:Generated_Source\PSoC6\pdl\drivers/peripheral/gpio/cy_gpio.h **** #define CY_GPIO_DM_OD_DRIVESHIGH               (0x0DUL) /**< \brief Open Drain, Drives High. Input 
 341:Generated_Source\PSoC6\pdl\drivers/peripheral/gpio/cy_gpio.h **** #define CY_GPIO_DM_STRONG                      (0x0EUL) /**< \brief Strong Drive. Input buffer on *
 342:Generated_Source\PSoC6\pdl\drivers/peripheral/gpio/cy_gpio.h **** #define CY_GPIO_DM_PULLUP_DOWN                 (0x0FUL) /**< \brief Resistive Pull-Up/Down. Input b
 343:Generated_Source\PSoC6\pdl\drivers/peripheral/gpio/cy_gpio.h **** /** \} */
 344:Generated_Source\PSoC6\pdl\drivers/peripheral/gpio/cy_gpio.h **** 
 345:Generated_Source\PSoC6\pdl\drivers/peripheral/gpio/cy_gpio.h **** /**
 346:Generated_Source\PSoC6\pdl\drivers/peripheral/gpio/cy_gpio.h **** * \defgroup group_gpio_vtrip Voltage trip mode
 347:Generated_Source\PSoC6\pdl\drivers/peripheral/gpio/cy_gpio.h **** * \{
 348:Generated_Source\PSoC6\pdl\drivers/peripheral/gpio/cy_gpio.h **** * Constants to be used for setting the voltage trip type on the pin.
 349:Generated_Source\PSoC6\pdl\drivers/peripheral/gpio/cy_gpio.h **** */
 350:Generated_Source\PSoC6\pdl\drivers/peripheral/gpio/cy_gpio.h **** #define CY_GPIO_VTRIP_CMOS                     (0x00UL) /**< \brief Input buffer compatible with CM
 351:Generated_Source\PSoC6\pdl\drivers/peripheral/gpio/cy_gpio.h **** #define CY_GPIO_VTRIP_TTL                      (0x01UL) /**< \brief Input buffer compatible with TT
 352:Generated_Source\PSoC6\pdl\drivers/peripheral/gpio/cy_gpio.h **** /** \} */
 353:Generated_Source\PSoC6\pdl\drivers/peripheral/gpio/cy_gpio.h **** 
 354:Generated_Source\PSoC6\pdl\drivers/peripheral/gpio/cy_gpio.h **** /**
 355:Generated_Source\PSoC6\pdl\drivers/peripheral/gpio/cy_gpio.h **** * \defgroup group_gpio_slewRate Slew Rate Mode
 356:Generated_Source\PSoC6\pdl\drivers/peripheral/gpio/cy_gpio.h **** * \{
 357:Generated_Source\PSoC6\pdl\drivers/peripheral/gpio/cy_gpio.h **** * Constants to be used for setting the slew rate of the pin.
 358:Generated_Source\PSoC6\pdl\drivers/peripheral/gpio/cy_gpio.h **** */
 359:Generated_Source\PSoC6\pdl\drivers/peripheral/gpio/cy_gpio.h **** #define CY_GPIO_SLEW_FAST                      (0x00UL) /**< \brief Fast slew rate */
 360:Generated_Source\PSoC6\pdl\drivers/peripheral/gpio/cy_gpio.h **** #define CY_GPIO_SLEW_SLOW                      (0x01UL) /**< \brief Slow slew rate */
 361:Generated_Source\PSoC6\pdl\drivers/peripheral/gpio/cy_gpio.h **** /** \} */
 362:Generated_Source\PSoC6\pdl\drivers/peripheral/gpio/cy_gpio.h **** 
 363:Generated_Source\PSoC6\pdl\drivers/peripheral/gpio/cy_gpio.h **** /**
 364:Generated_Source\PSoC6\pdl\drivers/peripheral/gpio/cy_gpio.h **** * \defgroup group_gpio_driveStrength Pin drive strength
 365:Generated_Source\PSoC6\pdl\drivers/peripheral/gpio/cy_gpio.h **** * \{
 366:Generated_Source\PSoC6\pdl\drivers/peripheral/gpio/cy_gpio.h **** * Constants to be used for setting the drive strength of the pin.
 367:Generated_Source\PSoC6\pdl\drivers/peripheral/gpio/cy_gpio.h **** */
 368:Generated_Source\PSoC6\pdl\drivers/peripheral/gpio/cy_gpio.h **** #define CY_GPIO_DRIVE_FULL                     (0x00UL) /**< \brief Full drive strength: Max drive 
 369:Generated_Source\PSoC6\pdl\drivers/peripheral/gpio/cy_gpio.h **** #define CY_GPIO_DRIVE_1_2                      (0x01UL) /**< \brief 1/2 drive strength: 1/2 drive c
 370:Generated_Source\PSoC6\pdl\drivers/peripheral/gpio/cy_gpio.h **** #define CY_GPIO_DRIVE_1_4                      (0x02UL) /**< \brief 1/4 drive strength: 1/4 drive c
 371:Generated_Source\PSoC6\pdl\drivers/peripheral/gpio/cy_gpio.h **** #define CY_GPIO_DRIVE_1_8                      (0x03UL) /**< \brief 1/8 drive strength: 1/8 drive c
 372:Generated_Source\PSoC6\pdl\drivers/peripheral/gpio/cy_gpio.h **** /** \} */
 373:Generated_Source\PSoC6\pdl\drivers/peripheral/gpio/cy_gpio.h **** 
 374:Generated_Source\PSoC6\pdl\drivers/peripheral/gpio/cy_gpio.h **** /**
 375:Generated_Source\PSoC6\pdl\drivers/peripheral/gpio/cy_gpio.h **** * \defgroup group_gpio_interruptTrigger Interrupt trigger type
ARM GAS  C:\Users\charl\AppData\Local\Temp\ccXtIxtO.s 			page 9


 376:Generated_Source\PSoC6\pdl\drivers/peripheral/gpio/cy_gpio.h **** * \{
 377:Generated_Source\PSoC6\pdl\drivers/peripheral/gpio/cy_gpio.h **** * Constants to be used for setting the interrupt trigger type on the pin.
 378:Generated_Source\PSoC6\pdl\drivers/peripheral/gpio/cy_gpio.h **** */
 379:Generated_Source\PSoC6\pdl\drivers/peripheral/gpio/cy_gpio.h **** #define CY_GPIO_INTR_DISABLE                   (0x00UL) /**< \brief Disable the pin interrupt gener
 380:Generated_Source\PSoC6\pdl\drivers/peripheral/gpio/cy_gpio.h **** #define CY_GPIO_INTR_RISING                    (0x01UL) /**< \brief Rising-Edge interrupt */
 381:Generated_Source\PSoC6\pdl\drivers/peripheral/gpio/cy_gpio.h **** #define CY_GPIO_INTR_FALLING                   (0x02UL) /**< \brief Falling-Edge interrupt */
 382:Generated_Source\PSoC6\pdl\drivers/peripheral/gpio/cy_gpio.h **** #define CY_GPIO_INTR_BOTH                      (0x03UL) /**< \brief Both-Edge interrupt */
 383:Generated_Source\PSoC6\pdl\drivers/peripheral/gpio/cy_gpio.h **** /** \} */
 384:Generated_Source\PSoC6\pdl\drivers/peripheral/gpio/cy_gpio.h **** 
 385:Generated_Source\PSoC6\pdl\drivers/peripheral/gpio/cy_gpio.h **** /**
 386:Generated_Source\PSoC6\pdl\drivers/peripheral/gpio/cy_gpio.h **** * \defgroup group_gpio_sioVreg SIO output buffer mode
 387:Generated_Source\PSoC6\pdl\drivers/peripheral/gpio/cy_gpio.h **** * \{
 388:Generated_Source\PSoC6\pdl\drivers/peripheral/gpio/cy_gpio.h **** * Constants to be used for setting the SIO output buffer mode on the pin.
 389:Generated_Source\PSoC6\pdl\drivers/peripheral/gpio/cy_gpio.h **** */
 390:Generated_Source\PSoC6\pdl\drivers/peripheral/gpio/cy_gpio.h **** #define CY_SIO_VREG_UNREGULATED                (0x00UL) /**< \brief Unregulated output buffer */
 391:Generated_Source\PSoC6\pdl\drivers/peripheral/gpio/cy_gpio.h **** #define CY_SIO_VREG_REGULATED                  (0x01UL) /**< \brief Regulated output buffer */
 392:Generated_Source\PSoC6\pdl\drivers/peripheral/gpio/cy_gpio.h **** /** \} */
 393:Generated_Source\PSoC6\pdl\drivers/peripheral/gpio/cy_gpio.h **** 
 394:Generated_Source\PSoC6\pdl\drivers/peripheral/gpio/cy_gpio.h **** /**
 395:Generated_Source\PSoC6\pdl\drivers/peripheral/gpio/cy_gpio.h **** * \defgroup group_gpio_sioIbuf SIO input buffer mode
 396:Generated_Source\PSoC6\pdl\drivers/peripheral/gpio/cy_gpio.h **** * \{
 397:Generated_Source\PSoC6\pdl\drivers/peripheral/gpio/cy_gpio.h **** * Constants to be used for setting the SIO input buffer mode on the pin.
 398:Generated_Source\PSoC6\pdl\drivers/peripheral/gpio/cy_gpio.h **** */
 399:Generated_Source\PSoC6\pdl\drivers/peripheral/gpio/cy_gpio.h **** #define CY_SIO_IBUF_SINGLEENDED                (0x00UL) /**< \brief Single ended input buffer */
 400:Generated_Source\PSoC6\pdl\drivers/peripheral/gpio/cy_gpio.h **** #define CY_SIO_IBUF_DIFFERENTIAL               (0x01UL) /**< \brief Differential input buffer */
 401:Generated_Source\PSoC6\pdl\drivers/peripheral/gpio/cy_gpio.h **** /** \} */
 402:Generated_Source\PSoC6\pdl\drivers/peripheral/gpio/cy_gpio.h **** 
 403:Generated_Source\PSoC6\pdl\drivers/peripheral/gpio/cy_gpio.h **** /**
 404:Generated_Source\PSoC6\pdl\drivers/peripheral/gpio/cy_gpio.h **** * \defgroup group_gpio_sioVtrip SIO input buffer trip-point
 405:Generated_Source\PSoC6\pdl\drivers/peripheral/gpio/cy_gpio.h **** * \{
 406:Generated_Source\PSoC6\pdl\drivers/peripheral/gpio/cy_gpio.h **** * Constants to be used for setting the SIO input buffer trip-point of the pin.
 407:Generated_Source\PSoC6\pdl\drivers/peripheral/gpio/cy_gpio.h **** */
 408:Generated_Source\PSoC6\pdl\drivers/peripheral/gpio/cy_gpio.h **** #define CY_SIO_VTRIP_CMOS                      (0x00UL) /**< \brief CMOS input buffer (single-ended
 409:Generated_Source\PSoC6\pdl\drivers/peripheral/gpio/cy_gpio.h **** #define CY_SIO_VTRIP_TTL                       (0x01UL) /**< \brief TTL input buffer (single-ended)
 410:Generated_Source\PSoC6\pdl\drivers/peripheral/gpio/cy_gpio.h **** #define CY_SIO_VTRIP_0_5VDDIO_0_5VOH           (0x00UL) /**< \brief 0.5xVddio or 0.5xVoh (different
 411:Generated_Source\PSoC6\pdl\drivers/peripheral/gpio/cy_gpio.h **** #define CY_SIO_VTRIP_0_4VDDIO_1_0VREF          (0x01UL) /**< \brief 0.4xVddio or 0.4xVoh (different
 412:Generated_Source\PSoC6\pdl\drivers/peripheral/gpio/cy_gpio.h **** /** \} */
 413:Generated_Source\PSoC6\pdl\drivers/peripheral/gpio/cy_gpio.h **** 
 414:Generated_Source\PSoC6\pdl\drivers/peripheral/gpio/cy_gpio.h **** /**
 415:Generated_Source\PSoC6\pdl\drivers/peripheral/gpio/cy_gpio.h **** * \defgroup group_gpio_sioVref SIO reference voltage for input buffer trip-point
 416:Generated_Source\PSoC6\pdl\drivers/peripheral/gpio/cy_gpio.h **** * \{
 417:Generated_Source\PSoC6\pdl\drivers/peripheral/gpio/cy_gpio.h **** * Constants to be used for setting the reference voltage of SIO input buffer trip-point.
 418:Generated_Source\PSoC6\pdl\drivers/peripheral/gpio/cy_gpio.h **** */
 419:Generated_Source\PSoC6\pdl\drivers/peripheral/gpio/cy_gpio.h **** #define CY_SIO_VREF_PINREF                     (0x00UL) /**< \brief Vref from analog pin */
 420:Generated_Source\PSoC6\pdl\drivers/peripheral/gpio/cy_gpio.h **** #define CY_SIO_VREF_1_2V                       (0x01UL) /**< \brief Vref from internal 1.2V referen
 421:Generated_Source\PSoC6\pdl\drivers/peripheral/gpio/cy_gpio.h **** #define CY_SIO_VREF_AMUX_A                     (0x02UL) /**< \brief Vref from AMUXBUS_A */
 422:Generated_Source\PSoC6\pdl\drivers/peripheral/gpio/cy_gpio.h **** #define CY_SIO_VREF_AMUX_B                     (0x03UL) /**< \brief Vref from AMUXBUS_B */
 423:Generated_Source\PSoC6\pdl\drivers/peripheral/gpio/cy_gpio.h **** /** \} */
 424:Generated_Source\PSoC6\pdl\drivers/peripheral/gpio/cy_gpio.h **** 
 425:Generated_Source\PSoC6\pdl\drivers/peripheral/gpio/cy_gpio.h **** /**
 426:Generated_Source\PSoC6\pdl\drivers/peripheral/gpio/cy_gpio.h **** * \defgroup group_gpio_sioVoh Regulated output voltage level (Voh) and input buffer trip-point of a
 427:Generated_Source\PSoC6\pdl\drivers/peripheral/gpio/cy_gpio.h **** * \{
 428:Generated_Source\PSoC6\pdl\drivers/peripheral/gpio/cy_gpio.h **** * Constants to be used for setting the Voh and input buffer trip-point of an SIO pair
 429:Generated_Source\PSoC6\pdl\drivers/peripheral/gpio/cy_gpio.h **** */
 430:Generated_Source\PSoC6\pdl\drivers/peripheral/gpio/cy_gpio.h **** #define CY_SIO_VOH_1_00                        (0x00UL) /**< \brief Voh = 1 x Reference */
 431:Generated_Source\PSoC6\pdl\drivers/peripheral/gpio/cy_gpio.h **** #define CY_SIO_VOH_1_25                        (0x01UL) /**< \brief Voh = 1.25 x Reference */
 432:Generated_Source\PSoC6\pdl\drivers/peripheral/gpio/cy_gpio.h **** #define CY_SIO_VOH_1_49                        (0x02UL) /**< \brief Voh = 1.49 x Reference */
ARM GAS  C:\Users\charl\AppData\Local\Temp\ccXtIxtO.s 			page 10


 433:Generated_Source\PSoC6\pdl\drivers/peripheral/gpio/cy_gpio.h **** #define CY_SIO_VOH_1_67                        (0x03UL) /**< \brief Voh = 1.67 x Reference */
 434:Generated_Source\PSoC6\pdl\drivers/peripheral/gpio/cy_gpio.h **** #define CY_SIO_VOH_2_08                        (0x04UL) /**< \brief Voh = 2.08 x Reference */
 435:Generated_Source\PSoC6\pdl\drivers/peripheral/gpio/cy_gpio.h **** #define CY_SIO_VOH_2_50                        (0x05UL) /**< \brief Voh = 2.50 x Reference */
 436:Generated_Source\PSoC6\pdl\drivers/peripheral/gpio/cy_gpio.h **** #define CY_SIO_VOH_2_78                        (0x06UL) /**< \brief Voh = 2.78 x Reference */
 437:Generated_Source\PSoC6\pdl\drivers/peripheral/gpio/cy_gpio.h **** #define CY_SIO_VOH_4_16                        (0x07UL) /**< \brief Voh = 4.16 x Reference */
 438:Generated_Source\PSoC6\pdl\drivers/peripheral/gpio/cy_gpio.h **** /** \} */
 439:Generated_Source\PSoC6\pdl\drivers/peripheral/gpio/cy_gpio.h **** 
 440:Generated_Source\PSoC6\pdl\drivers/peripheral/gpio/cy_gpio.h **** /** \} group_gpio_macros */
 441:Generated_Source\PSoC6\pdl\drivers/peripheral/gpio/cy_gpio.h **** 
 442:Generated_Source\PSoC6\pdl\drivers/peripheral/gpio/cy_gpio.h **** /***************************************
 443:Generated_Source\PSoC6\pdl\drivers/peripheral/gpio/cy_gpio.h **** *        Function Prototypes
 444:Generated_Source\PSoC6\pdl\drivers/peripheral/gpio/cy_gpio.h **** ***************************************/
 445:Generated_Source\PSoC6\pdl\drivers/peripheral/gpio/cy_gpio.h **** 
 446:Generated_Source\PSoC6\pdl\drivers/peripheral/gpio/cy_gpio.h **** /**
 447:Generated_Source\PSoC6\pdl\drivers/peripheral/gpio/cy_gpio.h **** * \addtogroup group_gpio_functions
 448:Generated_Source\PSoC6\pdl\drivers/peripheral/gpio/cy_gpio.h **** * \{
 449:Generated_Source\PSoC6\pdl\drivers/peripheral/gpio/cy_gpio.h **** */
 450:Generated_Source\PSoC6\pdl\drivers/peripheral/gpio/cy_gpio.h **** 
 451:Generated_Source\PSoC6\pdl\drivers/peripheral/gpio/cy_gpio.h **** /**
 452:Generated_Source\PSoC6\pdl\drivers/peripheral/gpio/cy_gpio.h **** * \addtogroup group_gpio_functions_init
 453:Generated_Source\PSoC6\pdl\drivers/peripheral/gpio/cy_gpio.h **** * \{
 454:Generated_Source\PSoC6\pdl\drivers/peripheral/gpio/cy_gpio.h **** */
 455:Generated_Source\PSoC6\pdl\drivers/peripheral/gpio/cy_gpio.h **** 
 456:Generated_Source\PSoC6\pdl\drivers/peripheral/gpio/cy_gpio.h **** cy_en_gpio_status_t Cy_GPIO_Pin_Init(GPIO_PRT_Type* base, uint32_t pinNum, const cy_stc_gpio_pin_co
 457:Generated_Source\PSoC6\pdl\drivers/peripheral/gpio/cy_gpio.h **** cy_en_gpio_status_t Cy_GPIO_Port_Init(GPIO_PRT_Type* base, const cy_stc_gpio_prt_config_t *config);
 458:Generated_Source\PSoC6\pdl\drivers/peripheral/gpio/cy_gpio.h **** void Cy_GPIO_Pin_FastInit(GPIO_PRT_Type* base, uint32_t pinNum, uint32_t driveMode, uint32_t outVal
 459:Generated_Source\PSoC6\pdl\drivers/peripheral/gpio/cy_gpio.h **** void Cy_GPIO_Port_Deinit(GPIO_PRT_Type* base);
 460:Generated_Source\PSoC6\pdl\drivers/peripheral/gpio/cy_gpio.h **** __STATIC_INLINE void Cy_GPIO_SetHSIOM(GPIO_PRT_Type* base, uint32_t pinNum, en_hsiom_sel_t value);
 461:Generated_Source\PSoC6\pdl\drivers/peripheral/gpio/cy_gpio.h **** __STATIC_INLINE en_hsiom_sel_t Cy_GPIO_GetHSIOM(GPIO_PRT_Type* base, uint32_t pinNum);
 462:Generated_Source\PSoC6\pdl\drivers/peripheral/gpio/cy_gpio.h **** __STATIC_INLINE GPIO_PRT_Type* Cy_GPIO_PortToAddr(uint32_t portNum);
 463:Generated_Source\PSoC6\pdl\drivers/peripheral/gpio/cy_gpio.h **** 
 464:Generated_Source\PSoC6\pdl\drivers/peripheral/gpio/cy_gpio.h **** /** \} group_gpio_functions_init */
 465:Generated_Source\PSoC6\pdl\drivers/peripheral/gpio/cy_gpio.h **** 
 466:Generated_Source\PSoC6\pdl\drivers/peripheral/gpio/cy_gpio.h **** /**
 467:Generated_Source\PSoC6\pdl\drivers/peripheral/gpio/cy_gpio.h **** * \addtogroup group_gpio_functions_gpio
 468:Generated_Source\PSoC6\pdl\drivers/peripheral/gpio/cy_gpio.h **** * \{
 469:Generated_Source\PSoC6\pdl\drivers/peripheral/gpio/cy_gpio.h **** */
 470:Generated_Source\PSoC6\pdl\drivers/peripheral/gpio/cy_gpio.h **** 
 471:Generated_Source\PSoC6\pdl\drivers/peripheral/gpio/cy_gpio.h **** __STATIC_INLINE uint32_t Cy_GPIO_Read(GPIO_PRT_Type* base, uint32_t pinNum);
 472:Generated_Source\PSoC6\pdl\drivers/peripheral/gpio/cy_gpio.h **** __STATIC_INLINE void Cy_GPIO_Write(GPIO_PRT_Type* base, uint32_t pinNum, uint32_t value);
 473:Generated_Source\PSoC6\pdl\drivers/peripheral/gpio/cy_gpio.h **** __STATIC_INLINE uint32_t Cy_GPIO_ReadOut(GPIO_PRT_Type* base, uint32_t pinNum);
 474:Generated_Source\PSoC6\pdl\drivers/peripheral/gpio/cy_gpio.h **** __STATIC_INLINE void Cy_GPIO_Set(GPIO_PRT_Type* base, uint32_t pinNum);
 475:Generated_Source\PSoC6\pdl\drivers/peripheral/gpio/cy_gpio.h **** __STATIC_INLINE void Cy_GPIO_Clr(GPIO_PRT_Type* base, uint32_t pinNum);
 476:Generated_Source\PSoC6\pdl\drivers/peripheral/gpio/cy_gpio.h **** __STATIC_INLINE void Cy_GPIO_Inv(GPIO_PRT_Type* base, uint32_t pinNum);
 477:Generated_Source\PSoC6\pdl\drivers/peripheral/gpio/cy_gpio.h **** __STATIC_INLINE void Cy_GPIO_SetDrivemode(GPIO_PRT_Type* base, uint32_t pinNum, uint32_t value);
 478:Generated_Source\PSoC6\pdl\drivers/peripheral/gpio/cy_gpio.h **** __STATIC_INLINE uint32_t Cy_GPIO_GetDrivemode(GPIO_PRT_Type* base, uint32_t pinNum);
 479:Generated_Source\PSoC6\pdl\drivers/peripheral/gpio/cy_gpio.h **** __STATIC_INLINE void Cy_GPIO_SetVtrip(GPIO_PRT_Type* base, uint32_t pinNum, uint32_t value);
 480:Generated_Source\PSoC6\pdl\drivers/peripheral/gpio/cy_gpio.h **** __STATIC_INLINE uint32_t Cy_GPIO_GetVtrip(GPIO_PRT_Type* base, uint32_t pinNum);
 481:Generated_Source\PSoC6\pdl\drivers/peripheral/gpio/cy_gpio.h **** __STATIC_INLINE void Cy_GPIO_SetSlewRate(GPIO_PRT_Type* base, uint32_t pinNum, uint32_t value);
 482:Generated_Source\PSoC6\pdl\drivers/peripheral/gpio/cy_gpio.h **** __STATIC_INLINE uint32_t Cy_GPIO_GetSlewRate(GPIO_PRT_Type* base, uint32_t pinNum);
 483:Generated_Source\PSoC6\pdl\drivers/peripheral/gpio/cy_gpio.h **** __STATIC_INLINE void Cy_GPIO_SetDriveSel(GPIO_PRT_Type* base, uint32_t pinNum, uint32_t value);
 484:Generated_Source\PSoC6\pdl\drivers/peripheral/gpio/cy_gpio.h **** __STATIC_INLINE uint32_t Cy_GPIO_GetDriveSel(GPIO_PRT_Type* base, uint32_t pinNum);
 485:Generated_Source\PSoC6\pdl\drivers/peripheral/gpio/cy_gpio.h **** 
 486:Generated_Source\PSoC6\pdl\drivers/peripheral/gpio/cy_gpio.h **** /** \} group_gpio_functions_gpio */
 487:Generated_Source\PSoC6\pdl\drivers/peripheral/gpio/cy_gpio.h **** 
 488:Generated_Source\PSoC6\pdl\drivers/peripheral/gpio/cy_gpio.h **** /**
 489:Generated_Source\PSoC6\pdl\drivers/peripheral/gpio/cy_gpio.h **** * \addtogroup group_gpio_functions_sio
ARM GAS  C:\Users\charl\AppData\Local\Temp\ccXtIxtO.s 			page 11


 490:Generated_Source\PSoC6\pdl\drivers/peripheral/gpio/cy_gpio.h **** * \{
 491:Generated_Source\PSoC6\pdl\drivers/peripheral/gpio/cy_gpio.h **** */
 492:Generated_Source\PSoC6\pdl\drivers/peripheral/gpio/cy_gpio.h **** 
 493:Generated_Source\PSoC6\pdl\drivers/peripheral/gpio/cy_gpio.h **** __STATIC_INLINE void Cy_GPIO_SetVregEn(GPIO_PRT_Type* base, uint32_t pinNum, uint32_t value);
 494:Generated_Source\PSoC6\pdl\drivers/peripheral/gpio/cy_gpio.h **** __STATIC_INLINE uint32_t Cy_GPIO_GetVregEn(GPIO_PRT_Type* base, uint32_t pinNum);
 495:Generated_Source\PSoC6\pdl\drivers/peripheral/gpio/cy_gpio.h **** __STATIC_INLINE void Cy_GPIO_SetIbufMode(GPIO_PRT_Type* base, uint32_t pinNum, uint32_t value);
 496:Generated_Source\PSoC6\pdl\drivers/peripheral/gpio/cy_gpio.h **** __STATIC_INLINE uint32_t Cy_GPIO_GetIbufMode(GPIO_PRT_Type* base, uint32_t pinNum);
 497:Generated_Source\PSoC6\pdl\drivers/peripheral/gpio/cy_gpio.h **** __STATIC_INLINE void Cy_GPIO_SetVtripSel(GPIO_PRT_Type* base, uint32_t pinNum, uint32_t value);
 498:Generated_Source\PSoC6\pdl\drivers/peripheral/gpio/cy_gpio.h **** __STATIC_INLINE uint32_t Cy_GPIO_GetVtripSel(GPIO_PRT_Type* base, uint32_t pinNum);
 499:Generated_Source\PSoC6\pdl\drivers/peripheral/gpio/cy_gpio.h **** __STATIC_INLINE void Cy_GPIO_SetVrefSel(GPIO_PRT_Type* base, uint32_t pinNum, uint32_t value);
 500:Generated_Source\PSoC6\pdl\drivers/peripheral/gpio/cy_gpio.h **** __STATIC_INLINE uint32_t Cy_GPIO_GetVrefSel(GPIO_PRT_Type* base, uint32_t pinNum);
 501:Generated_Source\PSoC6\pdl\drivers/peripheral/gpio/cy_gpio.h **** __STATIC_INLINE void Cy_GPIO_SetVohSel(GPIO_PRT_Type* base, uint32_t pinNum, uint32_t value);
 502:Generated_Source\PSoC6\pdl\drivers/peripheral/gpio/cy_gpio.h **** __STATIC_INLINE uint32_t Cy_GPIO_GetVohSel(GPIO_PRT_Type* base, uint32_t pinNum);
 503:Generated_Source\PSoC6\pdl\drivers/peripheral/gpio/cy_gpio.h **** 
 504:Generated_Source\PSoC6\pdl\drivers/peripheral/gpio/cy_gpio.h **** /** \} group_gpio_functions_sio */
 505:Generated_Source\PSoC6\pdl\drivers/peripheral/gpio/cy_gpio.h **** 
 506:Generated_Source\PSoC6\pdl\drivers/peripheral/gpio/cy_gpio.h **** /**
 507:Generated_Source\PSoC6\pdl\drivers/peripheral/gpio/cy_gpio.h **** * \addtogroup group_gpio_functions_interrupt
 508:Generated_Source\PSoC6\pdl\drivers/peripheral/gpio/cy_gpio.h **** * \{
 509:Generated_Source\PSoC6\pdl\drivers/peripheral/gpio/cy_gpio.h **** */
 510:Generated_Source\PSoC6\pdl\drivers/peripheral/gpio/cy_gpio.h **** 
 511:Generated_Source\PSoC6\pdl\drivers/peripheral/gpio/cy_gpio.h **** __STATIC_INLINE uint32_t Cy_GPIO_GetInterruptStatus(GPIO_PRT_Type* base, uint32_t pinNum);
 512:Generated_Source\PSoC6\pdl\drivers/peripheral/gpio/cy_gpio.h **** __STATIC_INLINE void Cy_GPIO_ClearInterrupt(GPIO_PRT_Type* base, uint32_t pinNum);
 513:Generated_Source\PSoC6\pdl\drivers/peripheral/gpio/cy_gpio.h **** __STATIC_INLINE void Cy_GPIO_SetInterruptMask(GPIO_PRT_Type* base, uint32_t pinNum, uint32_t value)
 514:Generated_Source\PSoC6\pdl\drivers/peripheral/gpio/cy_gpio.h **** __STATIC_INLINE uint32_t Cy_GPIO_GetInterruptMask(GPIO_PRT_Type* base, uint32_t pinNum);
 515:Generated_Source\PSoC6\pdl\drivers/peripheral/gpio/cy_gpio.h **** __STATIC_INLINE uint32_t Cy_GPIO_GetInterruptStatusMasked(GPIO_PRT_Type* base, uint32_t pinNum);
 516:Generated_Source\PSoC6\pdl\drivers/peripheral/gpio/cy_gpio.h **** __STATIC_INLINE void Cy_GPIO_SetSwInterrupt(GPIO_PRT_Type* base, uint32_t pinNum);
 517:Generated_Source\PSoC6\pdl\drivers/peripheral/gpio/cy_gpio.h **** __STATIC_INLINE void Cy_GPIO_SetInterruptEdge(GPIO_PRT_Type* base, uint32_t pinNum, uint32_t value)
 518:Generated_Source\PSoC6\pdl\drivers/peripheral/gpio/cy_gpio.h **** __STATIC_INLINE uint32_t Cy_GPIO_GetInterruptEdge(GPIO_PRT_Type* base, uint32_t pinNum);
 519:Generated_Source\PSoC6\pdl\drivers/peripheral/gpio/cy_gpio.h **** __STATIC_INLINE void Cy_GPIO_SetFilter(GPIO_PRT_Type* base, uint32_t value);
 520:Generated_Source\PSoC6\pdl\drivers/peripheral/gpio/cy_gpio.h **** __STATIC_INLINE uint32_t Cy_GPIO_GetFilter(GPIO_PRT_Type* base);
 521:Generated_Source\PSoC6\pdl\drivers/peripheral/gpio/cy_gpio.h **** 
 522:Generated_Source\PSoC6\pdl\drivers/peripheral/gpio/cy_gpio.h **** #if (IOSS_GPIO_GPIO_PORT_NR_0_31 != 0) || defined (CY_DOXYGEN)
 523:Generated_Source\PSoC6\pdl\drivers/peripheral/gpio/cy_gpio.h **** __STATIC_INLINE uint32_t Cy_GPIO_GetInterruptCause0(void);
 524:Generated_Source\PSoC6\pdl\drivers/peripheral/gpio/cy_gpio.h **** #endif /* (IOSS_GPIO_GPIO_PORT_NR_0_31 != 0) */
 525:Generated_Source\PSoC6\pdl\drivers/peripheral/gpio/cy_gpio.h **** 
 526:Generated_Source\PSoC6\pdl\drivers/peripheral/gpio/cy_gpio.h **** #if (IOSS_GPIO_GPIO_PORT_NR_32_63 != 0) || defined (CY_DOXYGEN)
 527:Generated_Source\PSoC6\pdl\drivers/peripheral/gpio/cy_gpio.h **** __STATIC_INLINE uint32_t Cy_GPIO_GetInterruptCause1(void);
 528:Generated_Source\PSoC6\pdl\drivers/peripheral/gpio/cy_gpio.h **** #endif /* (IOSS_GPIO_GPIO_PORT_NR_32_63 != 0) */
 529:Generated_Source\PSoC6\pdl\drivers/peripheral/gpio/cy_gpio.h **** 
 530:Generated_Source\PSoC6\pdl\drivers/peripheral/gpio/cy_gpio.h **** #if (IOSS_GPIO_GPIO_PORT_NR_64_95 != 0) || defined (CY_DOXYGEN)
 531:Generated_Source\PSoC6\pdl\drivers/peripheral/gpio/cy_gpio.h **** __STATIC_INLINE uint32_t Cy_GPIO_GetInterruptCause2(void);
 532:Generated_Source\PSoC6\pdl\drivers/peripheral/gpio/cy_gpio.h **** #endif /* (IOSS_GPIO_GPIO_PORT_NR_64_95 != 0) */
 533:Generated_Source\PSoC6\pdl\drivers/peripheral/gpio/cy_gpio.h **** 
 534:Generated_Source\PSoC6\pdl\drivers/peripheral/gpio/cy_gpio.h **** #if (IOSS_GPIO_GPIO_PORT_NR_96_127 != 0) || defined (CY_DOXYGEN)
 535:Generated_Source\PSoC6\pdl\drivers/peripheral/gpio/cy_gpio.h **** __STATIC_INLINE uint32_t Cy_GPIO_GetInterruptCause3(void);
 536:Generated_Source\PSoC6\pdl\drivers/peripheral/gpio/cy_gpio.h **** #endif /* (IOSS_GPIO_GPIO_PORT_NR_96_127 != 0) */
 537:Generated_Source\PSoC6\pdl\drivers/peripheral/gpio/cy_gpio.h **** 
 538:Generated_Source\PSoC6\pdl\drivers/peripheral/gpio/cy_gpio.h **** /** \} group_gpio_functions_interrupt */
 539:Generated_Source\PSoC6\pdl\drivers/peripheral/gpio/cy_gpio.h **** 
 540:Generated_Source\PSoC6\pdl\drivers/peripheral/gpio/cy_gpio.h **** 
 541:Generated_Source\PSoC6\pdl\drivers/peripheral/gpio/cy_gpio.h **** /**
 542:Generated_Source\PSoC6\pdl\drivers/peripheral/gpio/cy_gpio.h **** * \addtogroup group_gpio_functions_init
 543:Generated_Source\PSoC6\pdl\drivers/peripheral/gpio/cy_gpio.h **** * \{
 544:Generated_Source\PSoC6\pdl\drivers/peripheral/gpio/cy_gpio.h **** */
 545:Generated_Source\PSoC6\pdl\drivers/peripheral/gpio/cy_gpio.h **** 
 546:Generated_Source\PSoC6\pdl\drivers/peripheral/gpio/cy_gpio.h **** /*******************************************************************************
ARM GAS  C:\Users\charl\AppData\Local\Temp\ccXtIxtO.s 			page 12


 547:Generated_Source\PSoC6\pdl\drivers/peripheral/gpio/cy_gpio.h **** * Function Name: Cy_GPIO_SetHSIOM
 548:Generated_Source\PSoC6\pdl\drivers/peripheral/gpio/cy_gpio.h **** ****************************************************************************//**
 549:Generated_Source\PSoC6\pdl\drivers/peripheral/gpio/cy_gpio.h **** *
 550:Generated_Source\PSoC6\pdl\drivers/peripheral/gpio/cy_gpio.h **** * \brief Configures the HSIOM connection to the pin.
 551:Generated_Source\PSoC6\pdl\drivers/peripheral/gpio/cy_gpio.h **** *
 552:Generated_Source\PSoC6\pdl\drivers/peripheral/gpio/cy_gpio.h **** * Connects the specified High-Speed Input Output Multiplexer (HSIOM) selection
 553:Generated_Source\PSoC6\pdl\drivers/peripheral/gpio/cy_gpio.h **** * to the pin.
 554:Generated_Source\PSoC6\pdl\drivers/peripheral/gpio/cy_gpio.h **** *
 555:Generated_Source\PSoC6\pdl\drivers/peripheral/gpio/cy_gpio.h **** * \param base
 556:Generated_Source\PSoC6\pdl\drivers/peripheral/gpio/cy_gpio.h **** * Pointer to the pin's port register base address
 557:Generated_Source\PSoC6\pdl\drivers/peripheral/gpio/cy_gpio.h **** *
 558:Generated_Source\PSoC6\pdl\drivers/peripheral/gpio/cy_gpio.h **** * \param pinNum
 559:Generated_Source\PSoC6\pdl\drivers/peripheral/gpio/cy_gpio.h **** * Position of the pin bit-field within the port register
 560:Generated_Source\PSoC6\pdl\drivers/peripheral/gpio/cy_gpio.h **** *
 561:Generated_Source\PSoC6\pdl\drivers/peripheral/gpio/cy_gpio.h **** * \param value
 562:Generated_Source\PSoC6\pdl\drivers/peripheral/gpio/cy_gpio.h **** * HSIOM input selection
 563:Generated_Source\PSoC6\pdl\drivers/peripheral/gpio/cy_gpio.h **** *
 564:Generated_Source\PSoC6\pdl\drivers/peripheral/gpio/cy_gpio.h **** * \return
 565:Generated_Source\PSoC6\pdl\drivers/peripheral/gpio/cy_gpio.h **** * void
 566:Generated_Source\PSoC6\pdl\drivers/peripheral/gpio/cy_gpio.h **** *
 567:Generated_Source\PSoC6\pdl\drivers/peripheral/gpio/cy_gpio.h **** * \note 
 568:Generated_Source\PSoC6\pdl\drivers/peripheral/gpio/cy_gpio.h **** * This function modifies a port register in a read-modify-write operation. It is
 569:Generated_Source\PSoC6\pdl\drivers/peripheral/gpio/cy_gpio.h **** * not thread safe as the resource is shared among multiple pins on a port.
 570:Generated_Source\PSoC6\pdl\drivers/peripheral/gpio/cy_gpio.h **** *
 571:Generated_Source\PSoC6\pdl\drivers/peripheral/gpio/cy_gpio.h **** * \funcusage
 572:Generated_Source\PSoC6\pdl\drivers/peripheral/gpio/cy_gpio.h **** * \snippet gpio/gpio_v1_10_sut_01.cydsn/main_cm4.c snippet_Cy_GPIO_SetHSIOM
 573:Generated_Source\PSoC6\pdl\drivers/peripheral/gpio/cy_gpio.h **** *
 574:Generated_Source\PSoC6\pdl\drivers/peripheral/gpio/cy_gpio.h **** *******************************************************************************/
 575:Generated_Source\PSoC6\pdl\drivers/peripheral/gpio/cy_gpio.h **** __STATIC_INLINE void Cy_GPIO_SetHSIOM(GPIO_PRT_Type* base, uint32_t pinNum, en_hsiom_sel_t value)
 576:Generated_Source\PSoC6\pdl\drivers/peripheral/gpio/cy_gpio.h **** {
 577:Generated_Source\PSoC6\pdl\drivers/peripheral/gpio/cy_gpio.h ****     uint32_t portNum;
 578:Generated_Source\PSoC6\pdl\drivers/peripheral/gpio/cy_gpio.h ****     uint32_t tempReg;
 579:Generated_Source\PSoC6\pdl\drivers/peripheral/gpio/cy_gpio.h ****     HSIOM_PRT_Type* portAddrHSIOM;
 580:Generated_Source\PSoC6\pdl\drivers/peripheral/gpio/cy_gpio.h **** 
 581:Generated_Source\PSoC6\pdl\drivers/peripheral/gpio/cy_gpio.h ****     CY_ASSERT_L2(CY_GPIO_IS_PIN_VALID(pinNum));
 582:Generated_Source\PSoC6\pdl\drivers/peripheral/gpio/cy_gpio.h ****     CY_ASSERT_L2(CY_GPIO_IS_HSIOM_VALID(value));
 583:Generated_Source\PSoC6\pdl\drivers/peripheral/gpio/cy_gpio.h **** 
 584:Generated_Source\PSoC6\pdl\drivers/peripheral/gpio/cy_gpio.h ****     portNum = ((uint32_t)(base) - GPIO_BASE) / GPIO_PRT_SECTION_SIZE;
 585:Generated_Source\PSoC6\pdl\drivers/peripheral/gpio/cy_gpio.h ****     portAddrHSIOM = (HSIOM_PRT_Type*)(HSIOM_BASE + (HSIOM_PRT_SECTION_SIZE * portNum));
 586:Generated_Source\PSoC6\pdl\drivers/peripheral/gpio/cy_gpio.h **** 
 587:Generated_Source\PSoC6\pdl\drivers/peripheral/gpio/cy_gpio.h ****     if(pinNum < CY_GPIO_PRT_HALF)
 588:Generated_Source\PSoC6\pdl\drivers/peripheral/gpio/cy_gpio.h ****     {
 589:Generated_Source\PSoC6\pdl\drivers/peripheral/gpio/cy_gpio.h ****         tempReg = portAddrHSIOM->PORT_SEL0 & ~(CY_GPIO_HSIOM_MASK << (pinNum << CY_GPIO_HSIOM_OFFSE
 590:Generated_Source\PSoC6\pdl\drivers/peripheral/gpio/cy_gpio.h ****         portAddrHSIOM->PORT_SEL0 = tempReg | ((value & CY_GPIO_HSIOM_MASK) << (pinNum << CY_GPIO_HS
 591:Generated_Source\PSoC6\pdl\drivers/peripheral/gpio/cy_gpio.h ****     }
 592:Generated_Source\PSoC6\pdl\drivers/peripheral/gpio/cy_gpio.h ****     else
 593:Generated_Source\PSoC6\pdl\drivers/peripheral/gpio/cy_gpio.h ****     {
 594:Generated_Source\PSoC6\pdl\drivers/peripheral/gpio/cy_gpio.h ****         pinNum -= CY_GPIO_PRT_HALF;
 595:Generated_Source\PSoC6\pdl\drivers/peripheral/gpio/cy_gpio.h ****         tempReg = portAddrHSIOM->PORT_SEL1 & ~(CY_GPIO_HSIOM_MASK << (pinNum << CY_GPIO_HSIOM_OFFSE
 596:Generated_Source\PSoC6\pdl\drivers/peripheral/gpio/cy_gpio.h ****         portAddrHSIOM->PORT_SEL1 = tempReg | ((value & CY_GPIO_HSIOM_MASK) << (pinNum << CY_GPIO_HS
 597:Generated_Source\PSoC6\pdl\drivers/peripheral/gpio/cy_gpio.h ****     }
 598:Generated_Source\PSoC6\pdl\drivers/peripheral/gpio/cy_gpio.h **** }
 599:Generated_Source\PSoC6\pdl\drivers/peripheral/gpio/cy_gpio.h **** 
 600:Generated_Source\PSoC6\pdl\drivers/peripheral/gpio/cy_gpio.h **** 
 601:Generated_Source\PSoC6\pdl\drivers/peripheral/gpio/cy_gpio.h **** /*******************************************************************************
 602:Generated_Source\PSoC6\pdl\drivers/peripheral/gpio/cy_gpio.h **** * Function Name: Cy_GPIO_GetHSIOM
 603:Generated_Source\PSoC6\pdl\drivers/peripheral/gpio/cy_gpio.h **** ****************************************************************************//**
ARM GAS  C:\Users\charl\AppData\Local\Temp\ccXtIxtO.s 			page 13


 604:Generated_Source\PSoC6\pdl\drivers/peripheral/gpio/cy_gpio.h **** *
 605:Generated_Source\PSoC6\pdl\drivers/peripheral/gpio/cy_gpio.h **** * \brief Returns the current HSIOM multiplexer connection to the pin.
 606:Generated_Source\PSoC6\pdl\drivers/peripheral/gpio/cy_gpio.h **** *
 607:Generated_Source\PSoC6\pdl\drivers/peripheral/gpio/cy_gpio.h **** * \param base
 608:Generated_Source\PSoC6\pdl\drivers/peripheral/gpio/cy_gpio.h **** * Pointer to the pin's port register base address
 609:Generated_Source\PSoC6\pdl\drivers/peripheral/gpio/cy_gpio.h **** *
 610:Generated_Source\PSoC6\pdl\drivers/peripheral/gpio/cy_gpio.h **** * \param pinNum
 611:Generated_Source\PSoC6\pdl\drivers/peripheral/gpio/cy_gpio.h **** * Position of the pin bit-field within the port register
 612:Generated_Source\PSoC6\pdl\drivers/peripheral/gpio/cy_gpio.h **** *
 613:Generated_Source\PSoC6\pdl\drivers/peripheral/gpio/cy_gpio.h **** * \return
 614:Generated_Source\PSoC6\pdl\drivers/peripheral/gpio/cy_gpio.h **** * HSIOM input selection
 615:Generated_Source\PSoC6\pdl\drivers/peripheral/gpio/cy_gpio.h **** *
 616:Generated_Source\PSoC6\pdl\drivers/peripheral/gpio/cy_gpio.h **** * \funcusage
 617:Generated_Source\PSoC6\pdl\drivers/peripheral/gpio/cy_gpio.h **** * \snippet gpio/gpio_v1_10_sut_01.cydsn/main_cm4.c snippet_Cy_GPIO_SetHSIOM
 618:Generated_Source\PSoC6\pdl\drivers/peripheral/gpio/cy_gpio.h **** *
 619:Generated_Source\PSoC6\pdl\drivers/peripheral/gpio/cy_gpio.h **** *******************************************************************************/
 620:Generated_Source\PSoC6\pdl\drivers/peripheral/gpio/cy_gpio.h **** __STATIC_INLINE en_hsiom_sel_t Cy_GPIO_GetHSIOM(GPIO_PRT_Type* base, uint32_t pinNum)
 621:Generated_Source\PSoC6\pdl\drivers/peripheral/gpio/cy_gpio.h **** {
 622:Generated_Source\PSoC6\pdl\drivers/peripheral/gpio/cy_gpio.h ****     uint32_t returnValue;
 623:Generated_Source\PSoC6\pdl\drivers/peripheral/gpio/cy_gpio.h ****     uint32_t portNum;
 624:Generated_Source\PSoC6\pdl\drivers/peripheral/gpio/cy_gpio.h ****     HSIOM_PRT_Type* portAddrHSIOM;
 625:Generated_Source\PSoC6\pdl\drivers/peripheral/gpio/cy_gpio.h ****     
 626:Generated_Source\PSoC6\pdl\drivers/peripheral/gpio/cy_gpio.h ****     CY_ASSERT_L2(CY_GPIO_IS_PIN_VALID(pinNum));
 627:Generated_Source\PSoC6\pdl\drivers/peripheral/gpio/cy_gpio.h **** 
 628:Generated_Source\PSoC6\pdl\drivers/peripheral/gpio/cy_gpio.h ****     portNum = ((uint32_t)(base) - GPIO_BASE) / GPIO_PRT_SECTION_SIZE;
 629:Generated_Source\PSoC6\pdl\drivers/peripheral/gpio/cy_gpio.h ****     portAddrHSIOM = (HSIOM_PRT_Type*)(HSIOM_BASE + (HSIOM_PRT_SECTION_SIZE * portNum));
 630:Generated_Source\PSoC6\pdl\drivers/peripheral/gpio/cy_gpio.h **** 
 631:Generated_Source\PSoC6\pdl\drivers/peripheral/gpio/cy_gpio.h ****     if(pinNum < CY_GPIO_PRT_HALF)
 632:Generated_Source\PSoC6\pdl\drivers/peripheral/gpio/cy_gpio.h ****     {
 633:Generated_Source\PSoC6\pdl\drivers/peripheral/gpio/cy_gpio.h ****         returnValue = (portAddrHSIOM->PORT_SEL0 >> (pinNum << CY_GPIO_HSIOM_OFFSET)) & CY_GPIO_HSIO
 634:Generated_Source\PSoC6\pdl\drivers/peripheral/gpio/cy_gpio.h ****     }
 635:Generated_Source\PSoC6\pdl\drivers/peripheral/gpio/cy_gpio.h ****     else
 636:Generated_Source\PSoC6\pdl\drivers/peripheral/gpio/cy_gpio.h ****     {
 637:Generated_Source\PSoC6\pdl\drivers/peripheral/gpio/cy_gpio.h ****         pinNum -= CY_GPIO_PRT_HALF;
 638:Generated_Source\PSoC6\pdl\drivers/peripheral/gpio/cy_gpio.h ****         returnValue = (portAddrHSIOM->PORT_SEL1 >> (pinNum << CY_GPIO_HSIOM_OFFSET)) & CY_GPIO_HSIO
 639:Generated_Source\PSoC6\pdl\drivers/peripheral/gpio/cy_gpio.h ****     }
 640:Generated_Source\PSoC6\pdl\drivers/peripheral/gpio/cy_gpio.h **** 
 641:Generated_Source\PSoC6\pdl\drivers/peripheral/gpio/cy_gpio.h ****     return (en_hsiom_sel_t)returnValue;
 642:Generated_Source\PSoC6\pdl\drivers/peripheral/gpio/cy_gpio.h **** }
 643:Generated_Source\PSoC6\pdl\drivers/peripheral/gpio/cy_gpio.h **** 
 644:Generated_Source\PSoC6\pdl\drivers/peripheral/gpio/cy_gpio.h **** 
 645:Generated_Source\PSoC6\pdl\drivers/peripheral/gpio/cy_gpio.h **** /*******************************************************************************
 646:Generated_Source\PSoC6\pdl\drivers/peripheral/gpio/cy_gpio.h **** * Function Name: Cy_GPIO_PortToAddr
 647:Generated_Source\PSoC6\pdl\drivers/peripheral/gpio/cy_gpio.h **** ****************************************************************************//**
 648:Generated_Source\PSoC6\pdl\drivers/peripheral/gpio/cy_gpio.h **** *
 649:Generated_Source\PSoC6\pdl\drivers/peripheral/gpio/cy_gpio.h **** * \brief Retrieves the port address based on the given port number.
 650:Generated_Source\PSoC6\pdl\drivers/peripheral/gpio/cy_gpio.h **** *
 651:Generated_Source\PSoC6\pdl\drivers/peripheral/gpio/cy_gpio.h **** * This is a helper function to calculate the port base address when given a port
 652:Generated_Source\PSoC6\pdl\drivers/peripheral/gpio/cy_gpio.h **** * number. It is to be used when pin access needs to be calculated at runtime.
 653:Generated_Source\PSoC6\pdl\drivers/peripheral/gpio/cy_gpio.h **** *
 654:Generated_Source\PSoC6\pdl\drivers/peripheral/gpio/cy_gpio.h **** * \param portNum
 655:Generated_Source\PSoC6\pdl\drivers/peripheral/gpio/cy_gpio.h **** * Port number
 656:Generated_Source\PSoC6\pdl\drivers/peripheral/gpio/cy_gpio.h **** *
 657:Generated_Source\PSoC6\pdl\drivers/peripheral/gpio/cy_gpio.h **** * \return
 658:Generated_Source\PSoC6\pdl\drivers/peripheral/gpio/cy_gpio.h **** * Base address of the port register structure
 659:Generated_Source\PSoC6\pdl\drivers/peripheral/gpio/cy_gpio.h **** *
 660:Generated_Source\PSoC6\pdl\drivers/peripheral/gpio/cy_gpio.h **** * \funcusage
ARM GAS  C:\Users\charl\AppData\Local\Temp\ccXtIxtO.s 			page 14


 661:Generated_Source\PSoC6\pdl\drivers/peripheral/gpio/cy_gpio.h **** * \snippet gpio/gpio_v1_10_sut_01.cydsn/main_cm4.c snippet_Cy_GPIO_PortToAddr
 662:Generated_Source\PSoC6\pdl\drivers/peripheral/gpio/cy_gpio.h **** *
 663:Generated_Source\PSoC6\pdl\drivers/peripheral/gpio/cy_gpio.h **** *******************************************************************************/
 664:Generated_Source\PSoC6\pdl\drivers/peripheral/gpio/cy_gpio.h **** __STATIC_INLINE GPIO_PRT_Type* Cy_GPIO_PortToAddr(uint32_t portNum)
 665:Generated_Source\PSoC6\pdl\drivers/peripheral/gpio/cy_gpio.h **** {
 666:Generated_Source\PSoC6\pdl\drivers/peripheral/gpio/cy_gpio.h ****     GPIO_PRT_Type* base;
 667:Generated_Source\PSoC6\pdl\drivers/peripheral/gpio/cy_gpio.h ****     
 668:Generated_Source\PSoC6\pdl\drivers/peripheral/gpio/cy_gpio.h ****     if(portNum < (uint32_t)IOSS_GPIO_GPIO_PORT_NR)
 669:Generated_Source\PSoC6\pdl\drivers/peripheral/gpio/cy_gpio.h ****     {
 670:Generated_Source\PSoC6\pdl\drivers/peripheral/gpio/cy_gpio.h ****          base = (GPIO_PRT_Type *)(GPIO_BASE + (GPIO_PRT_SECTION_SIZE * portNum));
 671:Generated_Source\PSoC6\pdl\drivers/peripheral/gpio/cy_gpio.h ****     }
 672:Generated_Source\PSoC6\pdl\drivers/peripheral/gpio/cy_gpio.h ****     else
 673:Generated_Source\PSoC6\pdl\drivers/peripheral/gpio/cy_gpio.h ****     {
 674:Generated_Source\PSoC6\pdl\drivers/peripheral/gpio/cy_gpio.h ****         /* Error: Return default base address */
 675:Generated_Source\PSoC6\pdl\drivers/peripheral/gpio/cy_gpio.h ****         base = (GPIO_PRT_Type *)(GPIO_BASE);
 676:Generated_Source\PSoC6\pdl\drivers/peripheral/gpio/cy_gpio.h ****     }
 677:Generated_Source\PSoC6\pdl\drivers/peripheral/gpio/cy_gpio.h **** 
 678:Generated_Source\PSoC6\pdl\drivers/peripheral/gpio/cy_gpio.h ****     return (base);
 679:Generated_Source\PSoC6\pdl\drivers/peripheral/gpio/cy_gpio.h **** }
 680:Generated_Source\PSoC6\pdl\drivers/peripheral/gpio/cy_gpio.h **** 
 681:Generated_Source\PSoC6\pdl\drivers/peripheral/gpio/cy_gpio.h **** /** \} group_gpio_functions_init */
 682:Generated_Source\PSoC6\pdl\drivers/peripheral/gpio/cy_gpio.h **** 
 683:Generated_Source\PSoC6\pdl\drivers/peripheral/gpio/cy_gpio.h **** /**
 684:Generated_Source\PSoC6\pdl\drivers/peripheral/gpio/cy_gpio.h **** * \addtogroup group_gpio_functions_gpio
 685:Generated_Source\PSoC6\pdl\drivers/peripheral/gpio/cy_gpio.h **** * \{
 686:Generated_Source\PSoC6\pdl\drivers/peripheral/gpio/cy_gpio.h **** */
 687:Generated_Source\PSoC6\pdl\drivers/peripheral/gpio/cy_gpio.h **** 
 688:Generated_Source\PSoC6\pdl\drivers/peripheral/gpio/cy_gpio.h **** /*******************************************************************************
 689:Generated_Source\PSoC6\pdl\drivers/peripheral/gpio/cy_gpio.h **** * Function Name: Cy_GPIO_Read
 690:Generated_Source\PSoC6\pdl\drivers/peripheral/gpio/cy_gpio.h **** ****************************************************************************//**
 691:Generated_Source\PSoC6\pdl\drivers/peripheral/gpio/cy_gpio.h **** *
 692:Generated_Source\PSoC6\pdl\drivers/peripheral/gpio/cy_gpio.h **** * \brief Reads the current logic level on the input buffer of the pin.
 693:Generated_Source\PSoC6\pdl\drivers/peripheral/gpio/cy_gpio.h **** *
 694:Generated_Source\PSoC6\pdl\drivers/peripheral/gpio/cy_gpio.h **** * \param base
 695:Generated_Source\PSoC6\pdl\drivers/peripheral/gpio/cy_gpio.h **** * Pointer to the pin's port register base address
 696:Generated_Source\PSoC6\pdl\drivers/peripheral/gpio/cy_gpio.h **** *
 697:Generated_Source\PSoC6\pdl\drivers/peripheral/gpio/cy_gpio.h **** * \param pinNum
 698:Generated_Source\PSoC6\pdl\drivers/peripheral/gpio/cy_gpio.h **** * Position of the pin bit-field within the port register.
 699:Generated_Source\PSoC6\pdl\drivers/peripheral/gpio/cy_gpio.h **** * Bit position 8 is the routed pin through the port glitch filter.
 700:Generated_Source\PSoC6\pdl\drivers/peripheral/gpio/cy_gpio.h **** *
 701:Generated_Source\PSoC6\pdl\drivers/peripheral/gpio/cy_gpio.h **** * \return
 702:Generated_Source\PSoC6\pdl\drivers/peripheral/gpio/cy_gpio.h **** * Logic level present on the pin
 703:Generated_Source\PSoC6\pdl\drivers/peripheral/gpio/cy_gpio.h **** *
 704:Generated_Source\PSoC6\pdl\drivers/peripheral/gpio/cy_gpio.h **** * \funcusage
 705:Generated_Source\PSoC6\pdl\drivers/peripheral/gpio/cy_gpio.h **** * \snippet gpio/gpio_v1_10_sut_01.cydsn/main_cm4.c snippet_Cy_GPIO_Read
 706:Generated_Source\PSoC6\pdl\drivers/peripheral/gpio/cy_gpio.h **** *
 707:Generated_Source\PSoC6\pdl\drivers/peripheral/gpio/cy_gpio.h **** *******************************************************************************/
 708:Generated_Source\PSoC6\pdl\drivers/peripheral/gpio/cy_gpio.h **** __STATIC_INLINE uint32_t Cy_GPIO_Read(GPIO_PRT_Type* base, uint32_t pinNum)
 709:Generated_Source\PSoC6\pdl\drivers/peripheral/gpio/cy_gpio.h **** {
 710:Generated_Source\PSoC6\pdl\drivers/peripheral/gpio/cy_gpio.h ****     CY_ASSERT_L2(CY_GPIO_IS_FILTER_PIN_VALID(pinNum));
 711:Generated_Source\PSoC6\pdl\drivers/peripheral/gpio/cy_gpio.h ****     
 712:Generated_Source\PSoC6\pdl\drivers/peripheral/gpio/cy_gpio.h ****     return (base->IN >> (pinNum)) & CY_GPIO_IN_MASK;
  48              		.loc 2 712 0 discriminator 1
  49 000a 064B     		ldr	r3, .L6
  50 000c 1B69     		ldr	r3, [r3, #16]
  51              	.LVL3:
  52              	.LBE23:
ARM GAS  C:\Users\charl\AppData\Local\Temp\ccXtIxtO.s 			page 15


  53              	.LBE22:
  54              	.LBB24:
  55              	.LBB25:
 713:Generated_Source\PSoC6\pdl\drivers/peripheral/gpio/cy_gpio.h **** }
 714:Generated_Source\PSoC6\pdl\drivers/peripheral/gpio/cy_gpio.h **** 
 715:Generated_Source\PSoC6\pdl\drivers/peripheral/gpio/cy_gpio.h **** 
 716:Generated_Source\PSoC6\pdl\drivers/peripheral/gpio/cy_gpio.h **** /*******************************************************************************
 717:Generated_Source\PSoC6\pdl\drivers/peripheral/gpio/cy_gpio.h **** * Function Name: Cy_GPIO_Write
 718:Generated_Source\PSoC6\pdl\drivers/peripheral/gpio/cy_gpio.h **** ****************************************************************************//**
 719:Generated_Source\PSoC6\pdl\drivers/peripheral/gpio/cy_gpio.h **** *
 720:Generated_Source\PSoC6\pdl\drivers/peripheral/gpio/cy_gpio.h **** * \brief Write a logic 0 or logic 1 state to the output driver.
 721:Generated_Source\PSoC6\pdl\drivers/peripheral/gpio/cy_gpio.h **** *
 722:Generated_Source\PSoC6\pdl\drivers/peripheral/gpio/cy_gpio.h **** * This function should be used only for software driven pins. It does not have
 723:Generated_Source\PSoC6\pdl\drivers/peripheral/gpio/cy_gpio.h **** * any effect on peripheral driven pins.
 724:Generated_Source\PSoC6\pdl\drivers/peripheral/gpio/cy_gpio.h **** *
 725:Generated_Source\PSoC6\pdl\drivers/peripheral/gpio/cy_gpio.h **** * \param base
 726:Generated_Source\PSoC6\pdl\drivers/peripheral/gpio/cy_gpio.h **** * Pointer to the pin's port register base address
 727:Generated_Source\PSoC6\pdl\drivers/peripheral/gpio/cy_gpio.h **** *
 728:Generated_Source\PSoC6\pdl\drivers/peripheral/gpio/cy_gpio.h **** * \param pinNum
 729:Generated_Source\PSoC6\pdl\drivers/peripheral/gpio/cy_gpio.h **** * Position of the pin bit-field within the port register
 730:Generated_Source\PSoC6\pdl\drivers/peripheral/gpio/cy_gpio.h **** *
 731:Generated_Source\PSoC6\pdl\drivers/peripheral/gpio/cy_gpio.h **** * \param value
 732:Generated_Source\PSoC6\pdl\drivers/peripheral/gpio/cy_gpio.h **** * Logic level to drive out on the pin
 733:Generated_Source\PSoC6\pdl\drivers/peripheral/gpio/cy_gpio.h **** *
 734:Generated_Source\PSoC6\pdl\drivers/peripheral/gpio/cy_gpio.h **** * \return
 735:Generated_Source\PSoC6\pdl\drivers/peripheral/gpio/cy_gpio.h **** * void
 736:Generated_Source\PSoC6\pdl\drivers/peripheral/gpio/cy_gpio.h **** *
 737:Generated_Source\PSoC6\pdl\drivers/peripheral/gpio/cy_gpio.h **** * \funcusage
 738:Generated_Source\PSoC6\pdl\drivers/peripheral/gpio/cy_gpio.h **** * \snippet gpio/gpio_v1_10_sut_01.cydsn/main_cm4.c snippet_Cy_GPIO_Write
 739:Generated_Source\PSoC6\pdl\drivers/peripheral/gpio/cy_gpio.h **** *
 740:Generated_Source\PSoC6\pdl\drivers/peripheral/gpio/cy_gpio.h **** *******************************************************************************/
 741:Generated_Source\PSoC6\pdl\drivers/peripheral/gpio/cy_gpio.h **** __STATIC_INLINE void Cy_GPIO_Write(GPIO_PRT_Type* base, uint32_t pinNum, uint32_t value)
 742:Generated_Source\PSoC6\pdl\drivers/peripheral/gpio/cy_gpio.h **** {
 743:Generated_Source\PSoC6\pdl\drivers/peripheral/gpio/cy_gpio.h ****     CY_ASSERT_L2(CY_GPIO_IS_PIN_VALID(pinNum));
 744:Generated_Source\PSoC6\pdl\drivers/peripheral/gpio/cy_gpio.h ****     CY_ASSERT_L2(CY_GPIO_IS_VALUE_VALID(value));
 745:Generated_Source\PSoC6\pdl\drivers/peripheral/gpio/cy_gpio.h **** 
 746:Generated_Source\PSoC6\pdl\drivers/peripheral/gpio/cy_gpio.h ****     /* Thread-safe: Directly access the pin registers instead of base->OUT */
 747:Generated_Source\PSoC6\pdl\drivers/peripheral/gpio/cy_gpio.h ****     if(0UL == value)
  56              		.loc 2 747 0 discriminator 1
  57 000e 13F0020F 		tst	r3, #2
  58 0012 03D0     		beq	.L3
 748:Generated_Source\PSoC6\pdl\drivers/peripheral/gpio/cy_gpio.h ****     {
 749:Generated_Source\PSoC6\pdl\drivers/peripheral/gpio/cy_gpio.h ****         base->OUT_CLR = CY_GPIO_OUT_MASK << pinNum;
  59              		.loc 2 749 0
  60 0014 0222     		movs	r2, #2
  61 0016 034B     		ldr	r3, .L6
  62              	.LVL4:
  63 0018 5A60     		str	r2, [r3, #4]
  64 001a F2E7     		b	.L2
  65              	.LVL5:
  66              	.L3:
 750:Generated_Source\PSoC6\pdl\drivers/peripheral/gpio/cy_gpio.h ****     }
 751:Generated_Source\PSoC6\pdl\drivers/peripheral/gpio/cy_gpio.h ****     else
 752:Generated_Source\PSoC6\pdl\drivers/peripheral/gpio/cy_gpio.h ****     {
 753:Generated_Source\PSoC6\pdl\drivers/peripheral/gpio/cy_gpio.h ****         base->OUT_SET = CY_GPIO_OUT_MASK << pinNum;
  67              		.loc 2 753 0
  68 001c 0222     		movs	r2, #2
ARM GAS  C:\Users\charl\AppData\Local\Temp\ccXtIxtO.s 			page 16


  69 001e 014B     		ldr	r3, .L6
  70              	.LVL6:
  71 0020 9A60     		str	r2, [r3, #8]
  72 0022 EEE7     		b	.L2
  73              	.L7:
  74              		.align	2
  75              	.L6:
  76 0024 80003240 		.word	1077018752
  77              	.LBE25:
  78              	.LBE24:
  79              		.cfi_endproc
  80              	.LFE471:
  81              		.size	taskLED, .-taskLED
  82              		.section	.text.bouton_isr,"ax",%progbits
  83              		.align	2
  84              		.global	bouton_isr
  85              		.thumb
  86              		.thumb_func
  87              		.type	bouton_isr, %function
  88              	bouton_isr:
  89              	.LFB472:
  35:main_cm4.c    ****         Cy_GPIO_Write(P1_1_PORT, P1_1_NUM, !Cy_GPIO_Read(P1_1_PORT, P1_1_NUM));
  36:main_cm4.c    ****     }
  37:main_cm4.c    **** }  
  38:main_cm4.c    **** 
  39:main_cm4.c    **** void bouton_isr(void)
  40:main_cm4.c    **** {
  90              		.loc 1 40 0
  91              		.cfi_startproc
  92              		@ args = 0, pretend = 0, frame = 0
  93              		@ frame_needed = 0, uses_anonymous_args = 0
  94 0000 08B5     		push	{r3, lr}
  95              		.cfi_def_cfa_offset 8
  96              		.cfi_offset 3, -8
  97              		.cfi_offset 14, -4
  41:main_cm4.c    ****     xSemaphoreGiveFromISR(semaph, NULL);
  98              		.loc 1 41 0
  99 0002 0021     		movs	r1, #0
 100 0004 0C4B     		ldr	r3, .L11
 101 0006 1868     		ldr	r0, [r3]
 102 0008 FFF7FEFF 		bl	xQueueGiveFromISR
 103              	.LVL7:
 104              	.LBB26:
 105              	.LBB27:
 754:Generated_Source\PSoC6\pdl\drivers/peripheral/gpio/cy_gpio.h ****     }
 755:Generated_Source\PSoC6\pdl\drivers/peripheral/gpio/cy_gpio.h **** }
 756:Generated_Source\PSoC6\pdl\drivers/peripheral/gpio/cy_gpio.h **** 
 757:Generated_Source\PSoC6\pdl\drivers/peripheral/gpio/cy_gpio.h **** 
 758:Generated_Source\PSoC6\pdl\drivers/peripheral/gpio/cy_gpio.h **** /*******************************************************************************
 759:Generated_Source\PSoC6\pdl\drivers/peripheral/gpio/cy_gpio.h **** * Function Name: Cy_GPIO_ReadOut
 760:Generated_Source\PSoC6\pdl\drivers/peripheral/gpio/cy_gpio.h **** ****************************************************************************//**
 761:Generated_Source\PSoC6\pdl\drivers/peripheral/gpio/cy_gpio.h **** *
 762:Generated_Source\PSoC6\pdl\drivers/peripheral/gpio/cy_gpio.h **** * \brief Reads the current logic level on the pin output driver.
 763:Generated_Source\PSoC6\pdl\drivers/peripheral/gpio/cy_gpio.h **** *
 764:Generated_Source\PSoC6\pdl\drivers/peripheral/gpio/cy_gpio.h **** * \param base
 765:Generated_Source\PSoC6\pdl\drivers/peripheral/gpio/cy_gpio.h **** * Pointer to the pin's port register base address
 766:Generated_Source\PSoC6\pdl\drivers/peripheral/gpio/cy_gpio.h **** *
ARM GAS  C:\Users\charl\AppData\Local\Temp\ccXtIxtO.s 			page 17


 767:Generated_Source\PSoC6\pdl\drivers/peripheral/gpio/cy_gpio.h **** * \param pinNum
 768:Generated_Source\PSoC6\pdl\drivers/peripheral/gpio/cy_gpio.h **** * Position of the pin bit-field within the port register
 769:Generated_Source\PSoC6\pdl\drivers/peripheral/gpio/cy_gpio.h **** *
 770:Generated_Source\PSoC6\pdl\drivers/peripheral/gpio/cy_gpio.h **** * \return
 771:Generated_Source\PSoC6\pdl\drivers/peripheral/gpio/cy_gpio.h **** * Logic level on the pin output driver
 772:Generated_Source\PSoC6\pdl\drivers/peripheral/gpio/cy_gpio.h **** *
 773:Generated_Source\PSoC6\pdl\drivers/peripheral/gpio/cy_gpio.h **** * \funcusage
 774:Generated_Source\PSoC6\pdl\drivers/peripheral/gpio/cy_gpio.h **** * \snippet gpio/gpio_v1_10_sut_01.cydsn/main_cm4.c snippet_Cy_GPIO_ReadOut
 775:Generated_Source\PSoC6\pdl\drivers/peripheral/gpio/cy_gpio.h **** *
 776:Generated_Source\PSoC6\pdl\drivers/peripheral/gpio/cy_gpio.h **** *******************************************************************************/
 777:Generated_Source\PSoC6\pdl\drivers/peripheral/gpio/cy_gpio.h **** __STATIC_INLINE uint32_t Cy_GPIO_ReadOut(GPIO_PRT_Type* base, uint32_t pinNum)
 778:Generated_Source\PSoC6\pdl\drivers/peripheral/gpio/cy_gpio.h **** {
 779:Generated_Source\PSoC6\pdl\drivers/peripheral/gpio/cy_gpio.h ****     CY_ASSERT_L2(CY_GPIO_IS_PIN_VALID(pinNum));
 780:Generated_Source\PSoC6\pdl\drivers/peripheral/gpio/cy_gpio.h **** 
 781:Generated_Source\PSoC6\pdl\drivers/peripheral/gpio/cy_gpio.h ****     return (base->OUT >> pinNum) & CY_GPIO_OUT_MASK;
 782:Generated_Source\PSoC6\pdl\drivers/peripheral/gpio/cy_gpio.h **** }
 783:Generated_Source\PSoC6\pdl\drivers/peripheral/gpio/cy_gpio.h **** 
 784:Generated_Source\PSoC6\pdl\drivers/peripheral/gpio/cy_gpio.h **** 
 785:Generated_Source\PSoC6\pdl\drivers/peripheral/gpio/cy_gpio.h **** /*******************************************************************************
 786:Generated_Source\PSoC6\pdl\drivers/peripheral/gpio/cy_gpio.h **** * Function Name: Cy_GPIO_Set
 787:Generated_Source\PSoC6\pdl\drivers/peripheral/gpio/cy_gpio.h **** ****************************************************************************//**
 788:Generated_Source\PSoC6\pdl\drivers/peripheral/gpio/cy_gpio.h **** *
 789:Generated_Source\PSoC6\pdl\drivers/peripheral/gpio/cy_gpio.h **** * \brief Set a pin output to logic state high.
 790:Generated_Source\PSoC6\pdl\drivers/peripheral/gpio/cy_gpio.h **** *
 791:Generated_Source\PSoC6\pdl\drivers/peripheral/gpio/cy_gpio.h **** * This function should be used only for software driven pins. It does not have
 792:Generated_Source\PSoC6\pdl\drivers/peripheral/gpio/cy_gpio.h **** * any effect on peripheral driven pins.
 793:Generated_Source\PSoC6\pdl\drivers/peripheral/gpio/cy_gpio.h **** *
 794:Generated_Source\PSoC6\pdl\drivers/peripheral/gpio/cy_gpio.h **** * \param base
 795:Generated_Source\PSoC6\pdl\drivers/peripheral/gpio/cy_gpio.h **** * Pointer to the pin's port register base address
 796:Generated_Source\PSoC6\pdl\drivers/peripheral/gpio/cy_gpio.h **** *
 797:Generated_Source\PSoC6\pdl\drivers/peripheral/gpio/cy_gpio.h **** * \param pinNum
 798:Generated_Source\PSoC6\pdl\drivers/peripheral/gpio/cy_gpio.h **** * Position of the pin bit-field within the port register
 799:Generated_Source\PSoC6\pdl\drivers/peripheral/gpio/cy_gpio.h **** *
 800:Generated_Source\PSoC6\pdl\drivers/peripheral/gpio/cy_gpio.h **** * \return
 801:Generated_Source\PSoC6\pdl\drivers/peripheral/gpio/cy_gpio.h **** * void
 802:Generated_Source\PSoC6\pdl\drivers/peripheral/gpio/cy_gpio.h **** *
 803:Generated_Source\PSoC6\pdl\drivers/peripheral/gpio/cy_gpio.h **** * \funcusage
 804:Generated_Source\PSoC6\pdl\drivers/peripheral/gpio/cy_gpio.h **** * \snippet gpio/gpio_v1_10_sut_01.cydsn/main_cm4.c snippet_Cy_GPIO_Set
 805:Generated_Source\PSoC6\pdl\drivers/peripheral/gpio/cy_gpio.h **** *
 806:Generated_Source\PSoC6\pdl\drivers/peripheral/gpio/cy_gpio.h **** *******************************************************************************/
 807:Generated_Source\PSoC6\pdl\drivers/peripheral/gpio/cy_gpio.h **** __STATIC_INLINE void Cy_GPIO_Set(GPIO_PRT_Type* base, uint32_t pinNum)
 808:Generated_Source\PSoC6\pdl\drivers/peripheral/gpio/cy_gpio.h **** {
 809:Generated_Source\PSoC6\pdl\drivers/peripheral/gpio/cy_gpio.h ****     CY_ASSERT_L2(CY_GPIO_IS_PIN_VALID(pinNum));
 810:Generated_Source\PSoC6\pdl\drivers/peripheral/gpio/cy_gpio.h ****     
 811:Generated_Source\PSoC6\pdl\drivers/peripheral/gpio/cy_gpio.h ****     base->OUT_SET = CY_GPIO_OUT_MASK << pinNum;
 812:Generated_Source\PSoC6\pdl\drivers/peripheral/gpio/cy_gpio.h **** }
 813:Generated_Source\PSoC6\pdl\drivers/peripheral/gpio/cy_gpio.h **** 
 814:Generated_Source\PSoC6\pdl\drivers/peripheral/gpio/cy_gpio.h **** 
 815:Generated_Source\PSoC6\pdl\drivers/peripheral/gpio/cy_gpio.h **** /*******************************************************************************
 816:Generated_Source\PSoC6\pdl\drivers/peripheral/gpio/cy_gpio.h **** * Function Name: Cy_GPIO_Clr
 817:Generated_Source\PSoC6\pdl\drivers/peripheral/gpio/cy_gpio.h **** ****************************************************************************//**
 818:Generated_Source\PSoC6\pdl\drivers/peripheral/gpio/cy_gpio.h **** *
 819:Generated_Source\PSoC6\pdl\drivers/peripheral/gpio/cy_gpio.h **** * \brief Set a pin output to logic state Low.
 820:Generated_Source\PSoC6\pdl\drivers/peripheral/gpio/cy_gpio.h **** *
 821:Generated_Source\PSoC6\pdl\drivers/peripheral/gpio/cy_gpio.h **** * This function should be used only for software driven pins. It does not have
 822:Generated_Source\PSoC6\pdl\drivers/peripheral/gpio/cy_gpio.h **** * any effect on peripheral driven pins.
 823:Generated_Source\PSoC6\pdl\drivers/peripheral/gpio/cy_gpio.h **** *
ARM GAS  C:\Users\charl\AppData\Local\Temp\ccXtIxtO.s 			page 18


 824:Generated_Source\PSoC6\pdl\drivers/peripheral/gpio/cy_gpio.h **** * \param base
 825:Generated_Source\PSoC6\pdl\drivers/peripheral/gpio/cy_gpio.h **** * Pointer to the pin's port register base address
 826:Generated_Source\PSoC6\pdl\drivers/peripheral/gpio/cy_gpio.h **** *
 827:Generated_Source\PSoC6\pdl\drivers/peripheral/gpio/cy_gpio.h **** * \param pinNum
 828:Generated_Source\PSoC6\pdl\drivers/peripheral/gpio/cy_gpio.h **** * Position of the pin bit-field within the port register
 829:Generated_Source\PSoC6\pdl\drivers/peripheral/gpio/cy_gpio.h **** *
 830:Generated_Source\PSoC6\pdl\drivers/peripheral/gpio/cy_gpio.h **** * \return
 831:Generated_Source\PSoC6\pdl\drivers/peripheral/gpio/cy_gpio.h **** * void
 832:Generated_Source\PSoC6\pdl\drivers/peripheral/gpio/cy_gpio.h **** *
 833:Generated_Source\PSoC6\pdl\drivers/peripheral/gpio/cy_gpio.h **** * \funcusage
 834:Generated_Source\PSoC6\pdl\drivers/peripheral/gpio/cy_gpio.h **** * \snippet gpio/gpio_v1_10_sut_01.cydsn/main_cm4.c snippet_Cy_GPIO_Clr
 835:Generated_Source\PSoC6\pdl\drivers/peripheral/gpio/cy_gpio.h **** *
 836:Generated_Source\PSoC6\pdl\drivers/peripheral/gpio/cy_gpio.h **** *******************************************************************************/
 837:Generated_Source\PSoC6\pdl\drivers/peripheral/gpio/cy_gpio.h **** __STATIC_INLINE void Cy_GPIO_Clr(GPIO_PRT_Type* base, uint32_t pinNum)
 838:Generated_Source\PSoC6\pdl\drivers/peripheral/gpio/cy_gpio.h **** {
 839:Generated_Source\PSoC6\pdl\drivers/peripheral/gpio/cy_gpio.h ****     CY_ASSERT_L2(CY_GPIO_IS_PIN_VALID(pinNum));
 840:Generated_Source\PSoC6\pdl\drivers/peripheral/gpio/cy_gpio.h ****     
 841:Generated_Source\PSoC6\pdl\drivers/peripheral/gpio/cy_gpio.h ****     base->OUT_CLR = CY_GPIO_OUT_MASK << pinNum;
 842:Generated_Source\PSoC6\pdl\drivers/peripheral/gpio/cy_gpio.h **** }
 843:Generated_Source\PSoC6\pdl\drivers/peripheral/gpio/cy_gpio.h **** 
 844:Generated_Source\PSoC6\pdl\drivers/peripheral/gpio/cy_gpio.h **** 
 845:Generated_Source\PSoC6\pdl\drivers/peripheral/gpio/cy_gpio.h **** /*******************************************************************************
 846:Generated_Source\PSoC6\pdl\drivers/peripheral/gpio/cy_gpio.h **** * Function Name: Cy_GPIO_Inv
 847:Generated_Source\PSoC6\pdl\drivers/peripheral/gpio/cy_gpio.h **** ****************************************************************************//**
 848:Generated_Source\PSoC6\pdl\drivers/peripheral/gpio/cy_gpio.h **** *
 849:Generated_Source\PSoC6\pdl\drivers/peripheral/gpio/cy_gpio.h **** * \brief Set a pin output logic state to the inverse of the current output
 850:Generated_Source\PSoC6\pdl\drivers/peripheral/gpio/cy_gpio.h **** * logic state.
 851:Generated_Source\PSoC6\pdl\drivers/peripheral/gpio/cy_gpio.h **** *
 852:Generated_Source\PSoC6\pdl\drivers/peripheral/gpio/cy_gpio.h **** * This function should be used only for software driven pins. It does not have
 853:Generated_Source\PSoC6\pdl\drivers/peripheral/gpio/cy_gpio.h **** * any effect on peripheral driven pins.
 854:Generated_Source\PSoC6\pdl\drivers/peripheral/gpio/cy_gpio.h **** *
 855:Generated_Source\PSoC6\pdl\drivers/peripheral/gpio/cy_gpio.h **** * \param base
 856:Generated_Source\PSoC6\pdl\drivers/peripheral/gpio/cy_gpio.h **** * Pointer to the pin's port register base address
 857:Generated_Source\PSoC6\pdl\drivers/peripheral/gpio/cy_gpio.h **** *
 858:Generated_Source\PSoC6\pdl\drivers/peripheral/gpio/cy_gpio.h **** * \param pinNum
 859:Generated_Source\PSoC6\pdl\drivers/peripheral/gpio/cy_gpio.h **** * Position of the pin bit-field within the port register
 860:Generated_Source\PSoC6\pdl\drivers/peripheral/gpio/cy_gpio.h **** *
 861:Generated_Source\PSoC6\pdl\drivers/peripheral/gpio/cy_gpio.h **** * \return
 862:Generated_Source\PSoC6\pdl\drivers/peripheral/gpio/cy_gpio.h **** * void
 863:Generated_Source\PSoC6\pdl\drivers/peripheral/gpio/cy_gpio.h **** *
 864:Generated_Source\PSoC6\pdl\drivers/peripheral/gpio/cy_gpio.h **** * \funcusage
 865:Generated_Source\PSoC6\pdl\drivers/peripheral/gpio/cy_gpio.h **** * \snippet gpio/gpio_v1_10_sut_01.cydsn/main_cm4.c snippet_Cy_GPIO_Inv
 866:Generated_Source\PSoC6\pdl\drivers/peripheral/gpio/cy_gpio.h **** *
 867:Generated_Source\PSoC6\pdl\drivers/peripheral/gpio/cy_gpio.h **** *******************************************************************************/
 868:Generated_Source\PSoC6\pdl\drivers/peripheral/gpio/cy_gpio.h **** __STATIC_INLINE void Cy_GPIO_Inv(GPIO_PRT_Type* base, uint32_t pinNum)
 869:Generated_Source\PSoC6\pdl\drivers/peripheral/gpio/cy_gpio.h **** {
 870:Generated_Source\PSoC6\pdl\drivers/peripheral/gpio/cy_gpio.h ****     CY_ASSERT_L2(CY_GPIO_IS_PIN_VALID(pinNum));
 871:Generated_Source\PSoC6\pdl\drivers/peripheral/gpio/cy_gpio.h ****     
 872:Generated_Source\PSoC6\pdl\drivers/peripheral/gpio/cy_gpio.h ****     base->OUT_INV = CY_GPIO_OUT_MASK << pinNum;
 873:Generated_Source\PSoC6\pdl\drivers/peripheral/gpio/cy_gpio.h **** }
 874:Generated_Source\PSoC6\pdl\drivers/peripheral/gpio/cy_gpio.h **** 
 875:Generated_Source\PSoC6\pdl\drivers/peripheral/gpio/cy_gpio.h **** 
 876:Generated_Source\PSoC6\pdl\drivers/peripheral/gpio/cy_gpio.h **** /*******************************************************************************
 877:Generated_Source\PSoC6\pdl\drivers/peripheral/gpio/cy_gpio.h **** * Function Name: Cy_GPIO_SetDrivemode
 878:Generated_Source\PSoC6\pdl\drivers/peripheral/gpio/cy_gpio.h **** ****************************************************************************//**
 879:Generated_Source\PSoC6\pdl\drivers/peripheral/gpio/cy_gpio.h **** *
 880:Generated_Source\PSoC6\pdl\drivers/peripheral/gpio/cy_gpio.h **** * \brief Configures the pin output buffer drive mode and input buffer enable.
ARM GAS  C:\Users\charl\AppData\Local\Temp\ccXtIxtO.s 			page 19


 881:Generated_Source\PSoC6\pdl\drivers/peripheral/gpio/cy_gpio.h **** *
 882:Generated_Source\PSoC6\pdl\drivers/peripheral/gpio/cy_gpio.h **** * The output buffer drive mode and input buffer enable are combined into a single
 883:Generated_Source\PSoC6\pdl\drivers/peripheral/gpio/cy_gpio.h **** * parameter. The drive mode controls the behavior of the pin in general.
 884:Generated_Source\PSoC6\pdl\drivers/peripheral/gpio/cy_gpio.h **** * Enabling the input buffer allows the digital pin state to be read but also
 885:Generated_Source\PSoC6\pdl\drivers/peripheral/gpio/cy_gpio.h **** * contributes to extra current consumption.
 886:Generated_Source\PSoC6\pdl\drivers/peripheral/gpio/cy_gpio.h **** *
 887:Generated_Source\PSoC6\pdl\drivers/peripheral/gpio/cy_gpio.h **** * \param base
 888:Generated_Source\PSoC6\pdl\drivers/peripheral/gpio/cy_gpio.h **** * Pointer to the pin's port register base address
 889:Generated_Source\PSoC6\pdl\drivers/peripheral/gpio/cy_gpio.h **** *
 890:Generated_Source\PSoC6\pdl\drivers/peripheral/gpio/cy_gpio.h **** * \param pinNum
 891:Generated_Source\PSoC6\pdl\drivers/peripheral/gpio/cy_gpio.h **** * Position of the pin bit-field within the port register
 892:Generated_Source\PSoC6\pdl\drivers/peripheral/gpio/cy_gpio.h **** *
 893:Generated_Source\PSoC6\pdl\drivers/peripheral/gpio/cy_gpio.h **** * \param value
 894:Generated_Source\PSoC6\pdl\drivers/peripheral/gpio/cy_gpio.h **** * Pin drive mode. Options are detailed in \ref group_gpio_driveModes macros
 895:Generated_Source\PSoC6\pdl\drivers/peripheral/gpio/cy_gpio.h **** *
 896:Generated_Source\PSoC6\pdl\drivers/peripheral/gpio/cy_gpio.h **** * \return
 897:Generated_Source\PSoC6\pdl\drivers/peripheral/gpio/cy_gpio.h **** * void
 898:Generated_Source\PSoC6\pdl\drivers/peripheral/gpio/cy_gpio.h **** *
 899:Generated_Source\PSoC6\pdl\drivers/peripheral/gpio/cy_gpio.h **** * \note 
 900:Generated_Source\PSoC6\pdl\drivers/peripheral/gpio/cy_gpio.h **** * This function modifies a port register in a read-modify-write operation. It is
 901:Generated_Source\PSoC6\pdl\drivers/peripheral/gpio/cy_gpio.h **** * not thread safe as the resource is shared among multiple pins on a port.
 902:Generated_Source\PSoC6\pdl\drivers/peripheral/gpio/cy_gpio.h **** *
 903:Generated_Source\PSoC6\pdl\drivers/peripheral/gpio/cy_gpio.h **** * \funcusage
 904:Generated_Source\PSoC6\pdl\drivers/peripheral/gpio/cy_gpio.h **** * \snippet gpio/gpio_v1_10_sut_01.cydsn/main_cm4.c snippet_Cy_GPIO_SetDrivemode
 905:Generated_Source\PSoC6\pdl\drivers/peripheral/gpio/cy_gpio.h **** *
 906:Generated_Source\PSoC6\pdl\drivers/peripheral/gpio/cy_gpio.h **** *******************************************************************************/
 907:Generated_Source\PSoC6\pdl\drivers/peripheral/gpio/cy_gpio.h **** __STATIC_INLINE void Cy_GPIO_SetDrivemode(GPIO_PRT_Type* base, uint32_t pinNum, uint32_t value)
 908:Generated_Source\PSoC6\pdl\drivers/peripheral/gpio/cy_gpio.h **** {
 909:Generated_Source\PSoC6\pdl\drivers/peripheral/gpio/cy_gpio.h ****     uint32_t tempReg;
 910:Generated_Source\PSoC6\pdl\drivers/peripheral/gpio/cy_gpio.h ****     uint32_t pinLoc;
 911:Generated_Source\PSoC6\pdl\drivers/peripheral/gpio/cy_gpio.h **** 
 912:Generated_Source\PSoC6\pdl\drivers/peripheral/gpio/cy_gpio.h ****     CY_ASSERT_L2(CY_GPIO_IS_PIN_VALID(pinNum));
 913:Generated_Source\PSoC6\pdl\drivers/peripheral/gpio/cy_gpio.h ****     CY_ASSERT_L2(CY_GPIO_IS_DM_VALID(value));
 914:Generated_Source\PSoC6\pdl\drivers/peripheral/gpio/cy_gpio.h **** 
 915:Generated_Source\PSoC6\pdl\drivers/peripheral/gpio/cy_gpio.h ****     pinLoc = pinNum << CY_GPIO_DRIVE_MODE_OFFSET;
 916:Generated_Source\PSoC6\pdl\drivers/peripheral/gpio/cy_gpio.h ****     tempReg = (base->CFG & ~(CY_GPIO_CFG_DM_MASK << pinLoc));
 917:Generated_Source\PSoC6\pdl\drivers/peripheral/gpio/cy_gpio.h ****     base->CFG = tempReg | ((value & CY_GPIO_CFG_DM_MASK) << pinLoc);
 918:Generated_Source\PSoC6\pdl\drivers/peripheral/gpio/cy_gpio.h **** }
 919:Generated_Source\PSoC6\pdl\drivers/peripheral/gpio/cy_gpio.h **** 
 920:Generated_Source\PSoC6\pdl\drivers/peripheral/gpio/cy_gpio.h **** 
 921:Generated_Source\PSoC6\pdl\drivers/peripheral/gpio/cy_gpio.h **** /*******************************************************************************
 922:Generated_Source\PSoC6\pdl\drivers/peripheral/gpio/cy_gpio.h **** * Function Name: Cy_GPIO_GetDrivemode
 923:Generated_Source\PSoC6\pdl\drivers/peripheral/gpio/cy_gpio.h **** ****************************************************************************//**
 924:Generated_Source\PSoC6\pdl\drivers/peripheral/gpio/cy_gpio.h **** *
 925:Generated_Source\PSoC6\pdl\drivers/peripheral/gpio/cy_gpio.h **** * \brief Returns the pin output buffer drive mode and input buffer enable state.
 926:Generated_Source\PSoC6\pdl\drivers/peripheral/gpio/cy_gpio.h **** *
 927:Generated_Source\PSoC6\pdl\drivers/peripheral/gpio/cy_gpio.h **** * \param base
 928:Generated_Source\PSoC6\pdl\drivers/peripheral/gpio/cy_gpio.h **** * Pointer to the pin's port register base address
 929:Generated_Source\PSoC6\pdl\drivers/peripheral/gpio/cy_gpio.h **** *
 930:Generated_Source\PSoC6\pdl\drivers/peripheral/gpio/cy_gpio.h **** * \param pinNum
 931:Generated_Source\PSoC6\pdl\drivers/peripheral/gpio/cy_gpio.h **** * Position of the pin bit-field within the port register
 932:Generated_Source\PSoC6\pdl\drivers/peripheral/gpio/cy_gpio.h **** *
 933:Generated_Source\PSoC6\pdl\drivers/peripheral/gpio/cy_gpio.h **** * \return
 934:Generated_Source\PSoC6\pdl\drivers/peripheral/gpio/cy_gpio.h **** * Pin drive mode. Options are detailed in \ref group_gpio_driveModes macros
 935:Generated_Source\PSoC6\pdl\drivers/peripheral/gpio/cy_gpio.h **** *
 936:Generated_Source\PSoC6\pdl\drivers/peripheral/gpio/cy_gpio.h **** * \funcusage
 937:Generated_Source\PSoC6\pdl\drivers/peripheral/gpio/cy_gpio.h **** * \snippet gpio/gpio_v1_10_sut_01.cydsn/main_cm4.c snippet_Cy_GPIO_SetDrivemode
ARM GAS  C:\Users\charl\AppData\Local\Temp\ccXtIxtO.s 			page 20


 938:Generated_Source\PSoC6\pdl\drivers/peripheral/gpio/cy_gpio.h **** *
 939:Generated_Source\PSoC6\pdl\drivers/peripheral/gpio/cy_gpio.h **** *******************************************************************************/
 940:Generated_Source\PSoC6\pdl\drivers/peripheral/gpio/cy_gpio.h **** __STATIC_INLINE uint32_t Cy_GPIO_GetDrivemode(GPIO_PRT_Type* base, uint32_t pinNum)
 941:Generated_Source\PSoC6\pdl\drivers/peripheral/gpio/cy_gpio.h **** {
 942:Generated_Source\PSoC6\pdl\drivers/peripheral/gpio/cy_gpio.h ****     CY_ASSERT_L2(CY_GPIO_IS_PIN_VALID(pinNum));
 943:Generated_Source\PSoC6\pdl\drivers/peripheral/gpio/cy_gpio.h ****     
 944:Generated_Source\PSoC6\pdl\drivers/peripheral/gpio/cy_gpio.h ****     return (base->CFG >> (pinNum << CY_GPIO_DRIVE_MODE_OFFSET)) & CY_GPIO_CFG_DM_MASK;
 945:Generated_Source\PSoC6\pdl\drivers/peripheral/gpio/cy_gpio.h **** }
 946:Generated_Source\PSoC6\pdl\drivers/peripheral/gpio/cy_gpio.h **** 
 947:Generated_Source\PSoC6\pdl\drivers/peripheral/gpio/cy_gpio.h **** 
 948:Generated_Source\PSoC6\pdl\drivers/peripheral/gpio/cy_gpio.h **** /*******************************************************************************
 949:Generated_Source\PSoC6\pdl\drivers/peripheral/gpio/cy_gpio.h **** * Function Name: Cy_GPIO_SetVtrip
 950:Generated_Source\PSoC6\pdl\drivers/peripheral/gpio/cy_gpio.h **** ****************************************************************************//**
 951:Generated_Source\PSoC6\pdl\drivers/peripheral/gpio/cy_gpio.h **** *
 952:Generated_Source\PSoC6\pdl\drivers/peripheral/gpio/cy_gpio.h **** * \brief Configures the GPIO pin input buffer voltage threshold mode.
 953:Generated_Source\PSoC6\pdl\drivers/peripheral/gpio/cy_gpio.h **** *
 954:Generated_Source\PSoC6\pdl\drivers/peripheral/gpio/cy_gpio.h **** * \param base
 955:Generated_Source\PSoC6\pdl\drivers/peripheral/gpio/cy_gpio.h **** * Pointer to the pin's port register base address
 956:Generated_Source\PSoC6\pdl\drivers/peripheral/gpio/cy_gpio.h **** *
 957:Generated_Source\PSoC6\pdl\drivers/peripheral/gpio/cy_gpio.h **** * \param pinNum
 958:Generated_Source\PSoC6\pdl\drivers/peripheral/gpio/cy_gpio.h **** * Position of the pin bit-field within the port register
 959:Generated_Source\PSoC6\pdl\drivers/peripheral/gpio/cy_gpio.h **** *
 960:Generated_Source\PSoC6\pdl\drivers/peripheral/gpio/cy_gpio.h **** * \param value
 961:Generated_Source\PSoC6\pdl\drivers/peripheral/gpio/cy_gpio.h **** * Pin voltage threshold mode. Options are detailed in \ref group_gpio_vtrip macros
 962:Generated_Source\PSoC6\pdl\drivers/peripheral/gpio/cy_gpio.h **** *
 963:Generated_Source\PSoC6\pdl\drivers/peripheral/gpio/cy_gpio.h **** * \return
 964:Generated_Source\PSoC6\pdl\drivers/peripheral/gpio/cy_gpio.h **** * void
 965:Generated_Source\PSoC6\pdl\drivers/peripheral/gpio/cy_gpio.h **** *
 966:Generated_Source\PSoC6\pdl\drivers/peripheral/gpio/cy_gpio.h **** * \note 
 967:Generated_Source\PSoC6\pdl\drivers/peripheral/gpio/cy_gpio.h **** * This function modifies a port register in a read-modify-write operation. It is
 968:Generated_Source\PSoC6\pdl\drivers/peripheral/gpio/cy_gpio.h **** * not thread safe as the resource is shared among multiple pins on a port.
 969:Generated_Source\PSoC6\pdl\drivers/peripheral/gpio/cy_gpio.h **** *
 970:Generated_Source\PSoC6\pdl\drivers/peripheral/gpio/cy_gpio.h **** * \funcusage
 971:Generated_Source\PSoC6\pdl\drivers/peripheral/gpio/cy_gpio.h **** * \snippet gpio/gpio_v1_10_sut_01.cydsn/main_cm4.c snippet_Cy_GPIO_SetVtrip
 972:Generated_Source\PSoC6\pdl\drivers/peripheral/gpio/cy_gpio.h **** *
 973:Generated_Source\PSoC6\pdl\drivers/peripheral/gpio/cy_gpio.h **** *******************************************************************************/
 974:Generated_Source\PSoC6\pdl\drivers/peripheral/gpio/cy_gpio.h **** __STATIC_INLINE void Cy_GPIO_SetVtrip(GPIO_PRT_Type* base, uint32_t pinNum, uint32_t value)
 975:Generated_Source\PSoC6\pdl\drivers/peripheral/gpio/cy_gpio.h **** {
 976:Generated_Source\PSoC6\pdl\drivers/peripheral/gpio/cy_gpio.h ****     uint32_t tempReg;
 977:Generated_Source\PSoC6\pdl\drivers/peripheral/gpio/cy_gpio.h **** 
 978:Generated_Source\PSoC6\pdl\drivers/peripheral/gpio/cy_gpio.h ****     CY_ASSERT_L2(CY_GPIO_IS_PIN_VALID(pinNum));
 979:Generated_Source\PSoC6\pdl\drivers/peripheral/gpio/cy_gpio.h ****     CY_ASSERT_L2(CY_GPIO_IS_VALUE_VALID(value));
 980:Generated_Source\PSoC6\pdl\drivers/peripheral/gpio/cy_gpio.h **** 
 981:Generated_Source\PSoC6\pdl\drivers/peripheral/gpio/cy_gpio.h ****     tempReg = base->CFG_IN & ~(CY_GPIO_CFG_IN_VTRIP_SEL_MASK << pinNum);
 982:Generated_Source\PSoC6\pdl\drivers/peripheral/gpio/cy_gpio.h ****     base->CFG_IN = tempReg | ((value & CY_GPIO_CFG_IN_VTRIP_SEL_MASK) << pinNum);
 983:Generated_Source\PSoC6\pdl\drivers/peripheral/gpio/cy_gpio.h **** }
 984:Generated_Source\PSoC6\pdl\drivers/peripheral/gpio/cy_gpio.h **** 
 985:Generated_Source\PSoC6\pdl\drivers/peripheral/gpio/cy_gpio.h **** 
 986:Generated_Source\PSoC6\pdl\drivers/peripheral/gpio/cy_gpio.h **** /*******************************************************************************
 987:Generated_Source\PSoC6\pdl\drivers/peripheral/gpio/cy_gpio.h **** * Function Name: Cy_GPIO_GetVtrip
 988:Generated_Source\PSoC6\pdl\drivers/peripheral/gpio/cy_gpio.h **** ****************************************************************************//**
 989:Generated_Source\PSoC6\pdl\drivers/peripheral/gpio/cy_gpio.h **** *
 990:Generated_Source\PSoC6\pdl\drivers/peripheral/gpio/cy_gpio.h **** * \brief Returns the pin input buffer voltage threshold mode.
 991:Generated_Source\PSoC6\pdl\drivers/peripheral/gpio/cy_gpio.h **** *
 992:Generated_Source\PSoC6\pdl\drivers/peripheral/gpio/cy_gpio.h **** * \param base
 993:Generated_Source\PSoC6\pdl\drivers/peripheral/gpio/cy_gpio.h **** * Pointer to the pin's port register base address
 994:Generated_Source\PSoC6\pdl\drivers/peripheral/gpio/cy_gpio.h **** *
ARM GAS  C:\Users\charl\AppData\Local\Temp\ccXtIxtO.s 			page 21


 995:Generated_Source\PSoC6\pdl\drivers/peripheral/gpio/cy_gpio.h **** * \param pinNum
 996:Generated_Source\PSoC6\pdl\drivers/peripheral/gpio/cy_gpio.h **** * Position of the pin bit-field within the port register
 997:Generated_Source\PSoC6\pdl\drivers/peripheral/gpio/cy_gpio.h **** *
 998:Generated_Source\PSoC6\pdl\drivers/peripheral/gpio/cy_gpio.h **** * \return
 999:Generated_Source\PSoC6\pdl\drivers/peripheral/gpio/cy_gpio.h **** * Pin voltage threshold mode. Options are detailed in \ref group_gpio_vtrip macros
1000:Generated_Source\PSoC6\pdl\drivers/peripheral/gpio/cy_gpio.h **** *
1001:Generated_Source\PSoC6\pdl\drivers/peripheral/gpio/cy_gpio.h **** * \funcusage
1002:Generated_Source\PSoC6\pdl\drivers/peripheral/gpio/cy_gpio.h **** * \snippet gpio/gpio_v1_10_sut_01.cydsn/main_cm4.c snippet_Cy_GPIO_SetVtrip
1003:Generated_Source\PSoC6\pdl\drivers/peripheral/gpio/cy_gpio.h **** *
1004:Generated_Source\PSoC6\pdl\drivers/peripheral/gpio/cy_gpio.h **** *******************************************************************************/
1005:Generated_Source\PSoC6\pdl\drivers/peripheral/gpio/cy_gpio.h **** __STATIC_INLINE uint32_t Cy_GPIO_GetVtrip(GPIO_PRT_Type* base, uint32_t pinNum)
1006:Generated_Source\PSoC6\pdl\drivers/peripheral/gpio/cy_gpio.h **** {
1007:Generated_Source\PSoC6\pdl\drivers/peripheral/gpio/cy_gpio.h ****     CY_ASSERT_L2(CY_GPIO_IS_PIN_VALID(pinNum));
1008:Generated_Source\PSoC6\pdl\drivers/peripheral/gpio/cy_gpio.h ****     
1009:Generated_Source\PSoC6\pdl\drivers/peripheral/gpio/cy_gpio.h ****     return (base->CFG_IN >> pinNum) & CY_GPIO_CFG_IN_VTRIP_SEL_MASK;
1010:Generated_Source\PSoC6\pdl\drivers/peripheral/gpio/cy_gpio.h **** }
1011:Generated_Source\PSoC6\pdl\drivers/peripheral/gpio/cy_gpio.h **** 
1012:Generated_Source\PSoC6\pdl\drivers/peripheral/gpio/cy_gpio.h **** 
1013:Generated_Source\PSoC6\pdl\drivers/peripheral/gpio/cy_gpio.h **** /*******************************************************************************
1014:Generated_Source\PSoC6\pdl\drivers/peripheral/gpio/cy_gpio.h **** * Function Name: Cy_GPIO_SetSlewRate
1015:Generated_Source\PSoC6\pdl\drivers/peripheral/gpio/cy_gpio.h **** ****************************************************************************//**
1016:Generated_Source\PSoC6\pdl\drivers/peripheral/gpio/cy_gpio.h **** *
1017:Generated_Source\PSoC6\pdl\drivers/peripheral/gpio/cy_gpio.h **** * \brief Configures the pin output buffer slew rate.
1018:Generated_Source\PSoC6\pdl\drivers/peripheral/gpio/cy_gpio.h **** *
1019:Generated_Source\PSoC6\pdl\drivers/peripheral/gpio/cy_gpio.h **** * \param base
1020:Generated_Source\PSoC6\pdl\drivers/peripheral/gpio/cy_gpio.h **** * Pointer to the pin's port register base address
1021:Generated_Source\PSoC6\pdl\drivers/peripheral/gpio/cy_gpio.h **** *
1022:Generated_Source\PSoC6\pdl\drivers/peripheral/gpio/cy_gpio.h **** * \param pinNum
1023:Generated_Source\PSoC6\pdl\drivers/peripheral/gpio/cy_gpio.h **** * Position of the pin bit-field within the port register
1024:Generated_Source\PSoC6\pdl\drivers/peripheral/gpio/cy_gpio.h **** *
1025:Generated_Source\PSoC6\pdl\drivers/peripheral/gpio/cy_gpio.h **** * \param value
1026:Generated_Source\PSoC6\pdl\drivers/peripheral/gpio/cy_gpio.h **** * Pin slew rate. Options are detailed in \ref group_gpio_slewRate macros
1027:Generated_Source\PSoC6\pdl\drivers/peripheral/gpio/cy_gpio.h **** *
1028:Generated_Source\PSoC6\pdl\drivers/peripheral/gpio/cy_gpio.h **** * \return
1029:Generated_Source\PSoC6\pdl\drivers/peripheral/gpio/cy_gpio.h **** * void
1030:Generated_Source\PSoC6\pdl\drivers/peripheral/gpio/cy_gpio.h **** *
1031:Generated_Source\PSoC6\pdl\drivers/peripheral/gpio/cy_gpio.h **** * \note 
1032:Generated_Source\PSoC6\pdl\drivers/peripheral/gpio/cy_gpio.h **** * This function modifies a port register in a read-modify-write operation. It is
1033:Generated_Source\PSoC6\pdl\drivers/peripheral/gpio/cy_gpio.h **** * not thread safe as the resource is shared among multiple pins on a port.
1034:Generated_Source\PSoC6\pdl\drivers/peripheral/gpio/cy_gpio.h **** *
1035:Generated_Source\PSoC6\pdl\drivers/peripheral/gpio/cy_gpio.h **** * \funcusage
1036:Generated_Source\PSoC6\pdl\drivers/peripheral/gpio/cy_gpio.h **** * \snippet gpio/gpio_v1_10_sut_01.cydsn/main_cm4.c snippet_Cy_GPIO_SetSlewRate
1037:Generated_Source\PSoC6\pdl\drivers/peripheral/gpio/cy_gpio.h **** *
1038:Generated_Source\PSoC6\pdl\drivers/peripheral/gpio/cy_gpio.h **** *******************************************************************************/
1039:Generated_Source\PSoC6\pdl\drivers/peripheral/gpio/cy_gpio.h **** __STATIC_INLINE void Cy_GPIO_SetSlewRate(GPIO_PRT_Type* base, uint32_t pinNum, uint32_t value)
1040:Generated_Source\PSoC6\pdl\drivers/peripheral/gpio/cy_gpio.h **** {
1041:Generated_Source\PSoC6\pdl\drivers/peripheral/gpio/cy_gpio.h ****     uint32_t tempReg;
1042:Generated_Source\PSoC6\pdl\drivers/peripheral/gpio/cy_gpio.h **** 
1043:Generated_Source\PSoC6\pdl\drivers/peripheral/gpio/cy_gpio.h ****     CY_ASSERT_L2(CY_GPIO_IS_PIN_VALID(pinNum));
1044:Generated_Source\PSoC6\pdl\drivers/peripheral/gpio/cy_gpio.h ****     CY_ASSERT_L2(CY_GPIO_IS_VALUE_VALID(value));
1045:Generated_Source\PSoC6\pdl\drivers/peripheral/gpio/cy_gpio.h **** 
1046:Generated_Source\PSoC6\pdl\drivers/peripheral/gpio/cy_gpio.h ****     tempReg = base->CFG_OUT & ~(CY_GPIO_CFG_OUT_SLOW_MASK << pinNum);
1047:Generated_Source\PSoC6\pdl\drivers/peripheral/gpio/cy_gpio.h ****     base->CFG_OUT = tempReg | ((value & CY_GPIO_CFG_OUT_SLOW_MASK) << pinNum);
1048:Generated_Source\PSoC6\pdl\drivers/peripheral/gpio/cy_gpio.h **** }
1049:Generated_Source\PSoC6\pdl\drivers/peripheral/gpio/cy_gpio.h **** 
1050:Generated_Source\PSoC6\pdl\drivers/peripheral/gpio/cy_gpio.h **** 
1051:Generated_Source\PSoC6\pdl\drivers/peripheral/gpio/cy_gpio.h **** /*******************************************************************************
ARM GAS  C:\Users\charl\AppData\Local\Temp\ccXtIxtO.s 			page 22


1052:Generated_Source\PSoC6\pdl\drivers/peripheral/gpio/cy_gpio.h **** * Function Name: Cy_GPIO_GetSlewRate
1053:Generated_Source\PSoC6\pdl\drivers/peripheral/gpio/cy_gpio.h **** ****************************************************************************//**
1054:Generated_Source\PSoC6\pdl\drivers/peripheral/gpio/cy_gpio.h **** *
1055:Generated_Source\PSoC6\pdl\drivers/peripheral/gpio/cy_gpio.h **** * \brief Returns the pin output buffer slew rate.
1056:Generated_Source\PSoC6\pdl\drivers/peripheral/gpio/cy_gpio.h **** *
1057:Generated_Source\PSoC6\pdl\drivers/peripheral/gpio/cy_gpio.h **** * \param base
1058:Generated_Source\PSoC6\pdl\drivers/peripheral/gpio/cy_gpio.h **** * Pointer to the pin's port register base address
1059:Generated_Source\PSoC6\pdl\drivers/peripheral/gpio/cy_gpio.h **** *
1060:Generated_Source\PSoC6\pdl\drivers/peripheral/gpio/cy_gpio.h **** * \param pinNum
1061:Generated_Source\PSoC6\pdl\drivers/peripheral/gpio/cy_gpio.h **** * Position of the pin bit-field within the port register
1062:Generated_Source\PSoC6\pdl\drivers/peripheral/gpio/cy_gpio.h **** *
1063:Generated_Source\PSoC6\pdl\drivers/peripheral/gpio/cy_gpio.h **** * \return
1064:Generated_Source\PSoC6\pdl\drivers/peripheral/gpio/cy_gpio.h **** * Pin slew rate. Options are detailed in \ref group_gpio_slewRate macros
1065:Generated_Source\PSoC6\pdl\drivers/peripheral/gpio/cy_gpio.h **** *
1066:Generated_Source\PSoC6\pdl\drivers/peripheral/gpio/cy_gpio.h **** * \funcusage
1067:Generated_Source\PSoC6\pdl\drivers/peripheral/gpio/cy_gpio.h **** * \snippet gpio/gpio_v1_10_sut_01.cydsn/main_cm4.c snippet_Cy_GPIO_SetSlewRate
1068:Generated_Source\PSoC6\pdl\drivers/peripheral/gpio/cy_gpio.h **** *
1069:Generated_Source\PSoC6\pdl\drivers/peripheral/gpio/cy_gpio.h **** *******************************************************************************/
1070:Generated_Source\PSoC6\pdl\drivers/peripheral/gpio/cy_gpio.h **** __STATIC_INLINE uint32_t Cy_GPIO_GetSlewRate(GPIO_PRT_Type* base, uint32_t pinNum)
1071:Generated_Source\PSoC6\pdl\drivers/peripheral/gpio/cy_gpio.h **** {
1072:Generated_Source\PSoC6\pdl\drivers/peripheral/gpio/cy_gpio.h ****     CY_ASSERT_L2(CY_GPIO_IS_PIN_VALID(pinNum));
1073:Generated_Source\PSoC6\pdl\drivers/peripheral/gpio/cy_gpio.h **** 
1074:Generated_Source\PSoC6\pdl\drivers/peripheral/gpio/cy_gpio.h ****     return (base->CFG_OUT >> pinNum) & CY_GPIO_CFG_OUT_SLOW_MASK;
1075:Generated_Source\PSoC6\pdl\drivers/peripheral/gpio/cy_gpio.h **** }
1076:Generated_Source\PSoC6\pdl\drivers/peripheral/gpio/cy_gpio.h **** 
1077:Generated_Source\PSoC6\pdl\drivers/peripheral/gpio/cy_gpio.h **** 
1078:Generated_Source\PSoC6\pdl\drivers/peripheral/gpio/cy_gpio.h **** /*******************************************************************************
1079:Generated_Source\PSoC6\pdl\drivers/peripheral/gpio/cy_gpio.h **** * Function Name: Cy_GPIO_SetDriveSel
1080:Generated_Source\PSoC6\pdl\drivers/peripheral/gpio/cy_gpio.h **** ****************************************************************************//**
1081:Generated_Source\PSoC6\pdl\drivers/peripheral/gpio/cy_gpio.h **** *
1082:Generated_Source\PSoC6\pdl\drivers/peripheral/gpio/cy_gpio.h **** * \brief Configures the pin output buffer drive strength.
1083:Generated_Source\PSoC6\pdl\drivers/peripheral/gpio/cy_gpio.h **** *
1084:Generated_Source\PSoC6\pdl\drivers/peripheral/gpio/cy_gpio.h **** * \param base
1085:Generated_Source\PSoC6\pdl\drivers/peripheral/gpio/cy_gpio.h **** * Pointer to the pin's port register base address
1086:Generated_Source\PSoC6\pdl\drivers/peripheral/gpio/cy_gpio.h **** *
1087:Generated_Source\PSoC6\pdl\drivers/peripheral/gpio/cy_gpio.h **** * \param pinNum
1088:Generated_Source\PSoC6\pdl\drivers/peripheral/gpio/cy_gpio.h **** * Position of the pin bit-field within the port register
1089:Generated_Source\PSoC6\pdl\drivers/peripheral/gpio/cy_gpio.h **** *
1090:Generated_Source\PSoC6\pdl\drivers/peripheral/gpio/cy_gpio.h **** * \param value
1091:Generated_Source\PSoC6\pdl\drivers/peripheral/gpio/cy_gpio.h **** * Pin drive strength. Options are detailed in \ref group_gpio_driveStrength macros
1092:Generated_Source\PSoC6\pdl\drivers/peripheral/gpio/cy_gpio.h **** *
1093:Generated_Source\PSoC6\pdl\drivers/peripheral/gpio/cy_gpio.h **** * \return
1094:Generated_Source\PSoC6\pdl\drivers/peripheral/gpio/cy_gpio.h **** * void
1095:Generated_Source\PSoC6\pdl\drivers/peripheral/gpio/cy_gpio.h **** *
1096:Generated_Source\PSoC6\pdl\drivers/peripheral/gpio/cy_gpio.h **** * \note 
1097:Generated_Source\PSoC6\pdl\drivers/peripheral/gpio/cy_gpio.h **** * This function modifies a port register in a read-modify-write operation. It is
1098:Generated_Source\PSoC6\pdl\drivers/peripheral/gpio/cy_gpio.h **** * not thread safe as the resource is shared among multiple pins on a port.
1099:Generated_Source\PSoC6\pdl\drivers/peripheral/gpio/cy_gpio.h **** *
1100:Generated_Source\PSoC6\pdl\drivers/peripheral/gpio/cy_gpio.h **** * \funcusage
1101:Generated_Source\PSoC6\pdl\drivers/peripheral/gpio/cy_gpio.h **** * \snippet gpio/gpio_v1_10_sut_01.cydsn/main_cm4.c snippet_Cy_GPIO_SetDriveSel
1102:Generated_Source\PSoC6\pdl\drivers/peripheral/gpio/cy_gpio.h **** *
1103:Generated_Source\PSoC6\pdl\drivers/peripheral/gpio/cy_gpio.h **** *******************************************************************************/
1104:Generated_Source\PSoC6\pdl\drivers/peripheral/gpio/cy_gpio.h **** __STATIC_INLINE void Cy_GPIO_SetDriveSel(GPIO_PRT_Type* base, uint32_t pinNum, uint32_t value)
1105:Generated_Source\PSoC6\pdl\drivers/peripheral/gpio/cy_gpio.h **** {
1106:Generated_Source\PSoC6\pdl\drivers/peripheral/gpio/cy_gpio.h ****     uint32_t tempReg;
1107:Generated_Source\PSoC6\pdl\drivers/peripheral/gpio/cy_gpio.h ****     uint32_t pinLoc;
1108:Generated_Source\PSoC6\pdl\drivers/peripheral/gpio/cy_gpio.h **** 
ARM GAS  C:\Users\charl\AppData\Local\Temp\ccXtIxtO.s 			page 23


1109:Generated_Source\PSoC6\pdl\drivers/peripheral/gpio/cy_gpio.h ****     CY_ASSERT_L2(CY_GPIO_IS_PIN_VALID(pinNum));
1110:Generated_Source\PSoC6\pdl\drivers/peripheral/gpio/cy_gpio.h ****     CY_ASSERT_L2(CY_GPIO_IS_DRIVE_SEL_VALID(value));
1111:Generated_Source\PSoC6\pdl\drivers/peripheral/gpio/cy_gpio.h ****     
1112:Generated_Source\PSoC6\pdl\drivers/peripheral/gpio/cy_gpio.h ****     pinLoc = (uint32_t)(pinNum << 1u) + CY_GPIO_CFG_OUT_DRIVE_OFFSET;
1113:Generated_Source\PSoC6\pdl\drivers/peripheral/gpio/cy_gpio.h ****     tempReg = base->CFG_OUT & ~(CY_GPIO_CFG_OUT_DRIVE_SEL_MASK << pinLoc);
1114:Generated_Source\PSoC6\pdl\drivers/peripheral/gpio/cy_gpio.h ****     base->CFG_OUT = tempReg | ((value & CY_GPIO_CFG_OUT_DRIVE_SEL_MASK) << pinLoc);
1115:Generated_Source\PSoC6\pdl\drivers/peripheral/gpio/cy_gpio.h **** }
1116:Generated_Source\PSoC6\pdl\drivers/peripheral/gpio/cy_gpio.h **** 
1117:Generated_Source\PSoC6\pdl\drivers/peripheral/gpio/cy_gpio.h **** 
1118:Generated_Source\PSoC6\pdl\drivers/peripheral/gpio/cy_gpio.h **** /*******************************************************************************
1119:Generated_Source\PSoC6\pdl\drivers/peripheral/gpio/cy_gpio.h **** * Function Name: Cy_GPIO_GetDriveSel
1120:Generated_Source\PSoC6\pdl\drivers/peripheral/gpio/cy_gpio.h **** ****************************************************************************//**
1121:Generated_Source\PSoC6\pdl\drivers/peripheral/gpio/cy_gpio.h **** *
1122:Generated_Source\PSoC6\pdl\drivers/peripheral/gpio/cy_gpio.h **** * \brief Returns the pin output buffer drive strength.
1123:Generated_Source\PSoC6\pdl\drivers/peripheral/gpio/cy_gpio.h **** *
1124:Generated_Source\PSoC6\pdl\drivers/peripheral/gpio/cy_gpio.h **** * \param base
1125:Generated_Source\PSoC6\pdl\drivers/peripheral/gpio/cy_gpio.h **** * Pointer to the pin's port register base address
1126:Generated_Source\PSoC6\pdl\drivers/peripheral/gpio/cy_gpio.h **** *
1127:Generated_Source\PSoC6\pdl\drivers/peripheral/gpio/cy_gpio.h **** * \param pinNum
1128:Generated_Source\PSoC6\pdl\drivers/peripheral/gpio/cy_gpio.h **** * Position of the pin bit-field within the port register
1129:Generated_Source\PSoC6\pdl\drivers/peripheral/gpio/cy_gpio.h **** *
1130:Generated_Source\PSoC6\pdl\drivers/peripheral/gpio/cy_gpio.h **** * \return
1131:Generated_Source\PSoC6\pdl\drivers/peripheral/gpio/cy_gpio.h **** * Pin drive strength. Options are detailed in \ref group_gpio_driveStrength macros
1132:Generated_Source\PSoC6\pdl\drivers/peripheral/gpio/cy_gpio.h **** *
1133:Generated_Source\PSoC6\pdl\drivers/peripheral/gpio/cy_gpio.h **** * \funcusage
1134:Generated_Source\PSoC6\pdl\drivers/peripheral/gpio/cy_gpio.h **** * \snippet gpio/gpio_v1_10_sut_01.cydsn/main_cm4.c snippet_Cy_GPIO_SetDriveSel
1135:Generated_Source\PSoC6\pdl\drivers/peripheral/gpio/cy_gpio.h **** *
1136:Generated_Source\PSoC6\pdl\drivers/peripheral/gpio/cy_gpio.h **** *******************************************************************************/
1137:Generated_Source\PSoC6\pdl\drivers/peripheral/gpio/cy_gpio.h **** __STATIC_INLINE uint32_t Cy_GPIO_GetDriveSel(GPIO_PRT_Type* base, uint32_t pinNum)
1138:Generated_Source\PSoC6\pdl\drivers/peripheral/gpio/cy_gpio.h **** {
1139:Generated_Source\PSoC6\pdl\drivers/peripheral/gpio/cy_gpio.h ****     CY_ASSERT_L2(CY_GPIO_IS_PIN_VALID(pinNum));
1140:Generated_Source\PSoC6\pdl\drivers/peripheral/gpio/cy_gpio.h **** 
1141:Generated_Source\PSoC6\pdl\drivers/peripheral/gpio/cy_gpio.h ****     return ((base->CFG_OUT >> ((uint32_t)(pinNum << 1u) + CY_GPIO_CFG_OUT_DRIVE_OFFSET)) 
1142:Generated_Source\PSoC6\pdl\drivers/peripheral/gpio/cy_gpio.h ****             & CY_GPIO_CFG_OUT_DRIVE_SEL_MASK);
1143:Generated_Source\PSoC6\pdl\drivers/peripheral/gpio/cy_gpio.h **** }
1144:Generated_Source\PSoC6\pdl\drivers/peripheral/gpio/cy_gpio.h **** 
1145:Generated_Source\PSoC6\pdl\drivers/peripheral/gpio/cy_gpio.h **** /** \} group_gpio_functions_gpio */
1146:Generated_Source\PSoC6\pdl\drivers/peripheral/gpio/cy_gpio.h **** 
1147:Generated_Source\PSoC6\pdl\drivers/peripheral/gpio/cy_gpio.h **** /**
1148:Generated_Source\PSoC6\pdl\drivers/peripheral/gpio/cy_gpio.h **** * \addtogroup group_gpio_functions_sio
1149:Generated_Source\PSoC6\pdl\drivers/peripheral/gpio/cy_gpio.h **** * \{
1150:Generated_Source\PSoC6\pdl\drivers/peripheral/gpio/cy_gpio.h **** */
1151:Generated_Source\PSoC6\pdl\drivers/peripheral/gpio/cy_gpio.h **** 
1152:Generated_Source\PSoC6\pdl\drivers/peripheral/gpio/cy_gpio.h **** /*******************************************************************************
1153:Generated_Source\PSoC6\pdl\drivers/peripheral/gpio/cy_gpio.h **** * Function Name: Cy_GPIO_SetVregEn
1154:Generated_Source\PSoC6\pdl\drivers/peripheral/gpio/cy_gpio.h **** ****************************************************************************//**
1155:Generated_Source\PSoC6\pdl\drivers/peripheral/gpio/cy_gpio.h **** *
1156:Generated_Source\PSoC6\pdl\drivers/peripheral/gpio/cy_gpio.h **** * \brief Configures the SIO pin pair output buffer regulation mode.
1157:Generated_Source\PSoC6\pdl\drivers/peripheral/gpio/cy_gpio.h **** *
1158:Generated_Source\PSoC6\pdl\drivers/peripheral/gpio/cy_gpio.h **** * Note that this function has no effect on non-SIO pins.
1159:Generated_Source\PSoC6\pdl\drivers/peripheral/gpio/cy_gpio.h **** *
1160:Generated_Source\PSoC6\pdl\drivers/peripheral/gpio/cy_gpio.h **** * \param base
1161:Generated_Source\PSoC6\pdl\drivers/peripheral/gpio/cy_gpio.h **** * Pointer to the pin's port register base address
1162:Generated_Source\PSoC6\pdl\drivers/peripheral/gpio/cy_gpio.h **** *
1163:Generated_Source\PSoC6\pdl\drivers/peripheral/gpio/cy_gpio.h **** * \param pinNum
1164:Generated_Source\PSoC6\pdl\drivers/peripheral/gpio/cy_gpio.h **** * Position of the pin bit-field within the port register
1165:Generated_Source\PSoC6\pdl\drivers/peripheral/gpio/cy_gpio.h **** *
ARM GAS  C:\Users\charl\AppData\Local\Temp\ccXtIxtO.s 			page 24


1166:Generated_Source\PSoC6\pdl\drivers/peripheral/gpio/cy_gpio.h **** * \param value
1167:Generated_Source\PSoC6\pdl\drivers/peripheral/gpio/cy_gpio.h **** * SIO pair output buffer regulator mode. Options are detailed in \ref group_gpio_sioVreg macros
1168:Generated_Source\PSoC6\pdl\drivers/peripheral/gpio/cy_gpio.h **** *
1169:Generated_Source\PSoC6\pdl\drivers/peripheral/gpio/cy_gpio.h **** * \return
1170:Generated_Source\PSoC6\pdl\drivers/peripheral/gpio/cy_gpio.h **** * void
1171:Generated_Source\PSoC6\pdl\drivers/peripheral/gpio/cy_gpio.h **** *
1172:Generated_Source\PSoC6\pdl\drivers/peripheral/gpio/cy_gpio.h **** * \note 
1173:Generated_Source\PSoC6\pdl\drivers/peripheral/gpio/cy_gpio.h **** * This function modifies a port register in a read-modify-write operation. It is
1174:Generated_Source\PSoC6\pdl\drivers/peripheral/gpio/cy_gpio.h **** * not thread safe as the resource is shared among multiple pins on a port.
1175:Generated_Source\PSoC6\pdl\drivers/peripheral/gpio/cy_gpio.h **** *
1176:Generated_Source\PSoC6\pdl\drivers/peripheral/gpio/cy_gpio.h **** * \funcusage
1177:Generated_Source\PSoC6\pdl\drivers/peripheral/gpio/cy_gpio.h **** * \snippet gpio/gpio_v1_10_sut_01.cydsn/main_cm4.c snippet_Cy_GPIO_SetVregEn
1178:Generated_Source\PSoC6\pdl\drivers/peripheral/gpio/cy_gpio.h **** *
1179:Generated_Source\PSoC6\pdl\drivers/peripheral/gpio/cy_gpio.h **** *******************************************************************************/
1180:Generated_Source\PSoC6\pdl\drivers/peripheral/gpio/cy_gpio.h **** __STATIC_INLINE void Cy_GPIO_SetVregEn(GPIO_PRT_Type* base, uint32_t pinNum, uint32_t value)
1181:Generated_Source\PSoC6\pdl\drivers/peripheral/gpio/cy_gpio.h **** {
1182:Generated_Source\PSoC6\pdl\drivers/peripheral/gpio/cy_gpio.h ****     uint32_t tempReg;
1183:Generated_Source\PSoC6\pdl\drivers/peripheral/gpio/cy_gpio.h ****     uint32_t pinLoc;
1184:Generated_Source\PSoC6\pdl\drivers/peripheral/gpio/cy_gpio.h **** 
1185:Generated_Source\PSoC6\pdl\drivers/peripheral/gpio/cy_gpio.h ****     CY_ASSERT_L2(CY_GPIO_IS_PIN_VALID(pinNum));
1186:Generated_Source\PSoC6\pdl\drivers/peripheral/gpio/cy_gpio.h ****     CY_ASSERT_L2(CY_GPIO_IS_VALUE_VALID(value));
1187:Generated_Source\PSoC6\pdl\drivers/peripheral/gpio/cy_gpio.h **** 
1188:Generated_Source\PSoC6\pdl\drivers/peripheral/gpio/cy_gpio.h ****     pinLoc = (pinNum & CY_GPIO_SIO_ODD_PIN_MASK) << CY_GPIO_CFG_SIO_OFFSET;
1189:Generated_Source\PSoC6\pdl\drivers/peripheral/gpio/cy_gpio.h ****     tempReg = base->CFG_SIO & ~(CY_GPIO_VREG_EN_MASK << pinLoc);
1190:Generated_Source\PSoC6\pdl\drivers/peripheral/gpio/cy_gpio.h ****     base->CFG_SIO = tempReg | ((value & CY_GPIO_VREG_EN_MASK) << pinLoc);
1191:Generated_Source\PSoC6\pdl\drivers/peripheral/gpio/cy_gpio.h **** }
1192:Generated_Source\PSoC6\pdl\drivers/peripheral/gpio/cy_gpio.h **** 
1193:Generated_Source\PSoC6\pdl\drivers/peripheral/gpio/cy_gpio.h **** 
1194:Generated_Source\PSoC6\pdl\drivers/peripheral/gpio/cy_gpio.h **** /*******************************************************************************
1195:Generated_Source\PSoC6\pdl\drivers/peripheral/gpio/cy_gpio.h **** * Function Name: Cy_GPIO_GetVregEn
1196:Generated_Source\PSoC6\pdl\drivers/peripheral/gpio/cy_gpio.h **** ****************************************************************************//**
1197:Generated_Source\PSoC6\pdl\drivers/peripheral/gpio/cy_gpio.h **** *
1198:Generated_Source\PSoC6\pdl\drivers/peripheral/gpio/cy_gpio.h **** * \brief Returns the SIO pin pair output buffer regulation mode.
1199:Generated_Source\PSoC6\pdl\drivers/peripheral/gpio/cy_gpio.h **** *
1200:Generated_Source\PSoC6\pdl\drivers/peripheral/gpio/cy_gpio.h **** * Note that this function has no effect on non-SIO pins.
1201:Generated_Source\PSoC6\pdl\drivers/peripheral/gpio/cy_gpio.h **** *
1202:Generated_Source\PSoC6\pdl\drivers/peripheral/gpio/cy_gpio.h **** * \param base
1203:Generated_Source\PSoC6\pdl\drivers/peripheral/gpio/cy_gpio.h **** * Pointer to the pin's port register base address
1204:Generated_Source\PSoC6\pdl\drivers/peripheral/gpio/cy_gpio.h **** *
1205:Generated_Source\PSoC6\pdl\drivers/peripheral/gpio/cy_gpio.h **** * \param pinNum
1206:Generated_Source\PSoC6\pdl\drivers/peripheral/gpio/cy_gpio.h **** * Position of the pin bit-field within the port register
1207:Generated_Source\PSoC6\pdl\drivers/peripheral/gpio/cy_gpio.h **** *
1208:Generated_Source\PSoC6\pdl\drivers/peripheral/gpio/cy_gpio.h **** * \return
1209:Generated_Source\PSoC6\pdl\drivers/peripheral/gpio/cy_gpio.h **** * SIO pair output buffer regulator mode. Options are detailed in \ref group_gpio_sioVreg macros
1210:Generated_Source\PSoC6\pdl\drivers/peripheral/gpio/cy_gpio.h **** *
1211:Generated_Source\PSoC6\pdl\drivers/peripheral/gpio/cy_gpio.h **** * \funcusage
1212:Generated_Source\PSoC6\pdl\drivers/peripheral/gpio/cy_gpio.h **** * \snippet gpio/gpio_v1_10_sut_01.cydsn/main_cm4.c snippet_Cy_GPIO_SetVregEn
1213:Generated_Source\PSoC6\pdl\drivers/peripheral/gpio/cy_gpio.h **** *
1214:Generated_Source\PSoC6\pdl\drivers/peripheral/gpio/cy_gpio.h **** *******************************************************************************/
1215:Generated_Source\PSoC6\pdl\drivers/peripheral/gpio/cy_gpio.h **** __STATIC_INLINE uint32_t Cy_GPIO_GetVregEn(GPIO_PRT_Type* base, uint32_t pinNum)
1216:Generated_Source\PSoC6\pdl\drivers/peripheral/gpio/cy_gpio.h **** {
1217:Generated_Source\PSoC6\pdl\drivers/peripheral/gpio/cy_gpio.h ****     CY_ASSERT_L2(CY_GPIO_IS_PIN_VALID(pinNum));
1218:Generated_Source\PSoC6\pdl\drivers/peripheral/gpio/cy_gpio.h ****     
1219:Generated_Source\PSoC6\pdl\drivers/peripheral/gpio/cy_gpio.h ****     return (base->CFG_SIO >> ((pinNum & CY_GPIO_SIO_ODD_PIN_MASK) << CY_GPIO_CFG_SIO_OFFSET)) & CY_
1220:Generated_Source\PSoC6\pdl\drivers/peripheral/gpio/cy_gpio.h **** }
1221:Generated_Source\PSoC6\pdl\drivers/peripheral/gpio/cy_gpio.h **** 
1222:Generated_Source\PSoC6\pdl\drivers/peripheral/gpio/cy_gpio.h **** 
ARM GAS  C:\Users\charl\AppData\Local\Temp\ccXtIxtO.s 			page 25


1223:Generated_Source\PSoC6\pdl\drivers/peripheral/gpio/cy_gpio.h **** /*******************************************************************************
1224:Generated_Source\PSoC6\pdl\drivers/peripheral/gpio/cy_gpio.h **** * Function Name: Cy_GPIO_SetIbufMode
1225:Generated_Source\PSoC6\pdl\drivers/peripheral/gpio/cy_gpio.h **** ****************************************************************************//**
1226:Generated_Source\PSoC6\pdl\drivers/peripheral/gpio/cy_gpio.h **** *
1227:Generated_Source\PSoC6\pdl\drivers/peripheral/gpio/cy_gpio.h **** * \brief Configures the SIO pin pair input buffer mode.
1228:Generated_Source\PSoC6\pdl\drivers/peripheral/gpio/cy_gpio.h **** *
1229:Generated_Source\PSoC6\pdl\drivers/peripheral/gpio/cy_gpio.h **** * Note that this function has no effect on non-SIO pins.
1230:Generated_Source\PSoC6\pdl\drivers/peripheral/gpio/cy_gpio.h **** *
1231:Generated_Source\PSoC6\pdl\drivers/peripheral/gpio/cy_gpio.h **** * \param base
1232:Generated_Source\PSoC6\pdl\drivers/peripheral/gpio/cy_gpio.h **** * Pointer to the pin's port register base address
1233:Generated_Source\PSoC6\pdl\drivers/peripheral/gpio/cy_gpio.h **** *
1234:Generated_Source\PSoC6\pdl\drivers/peripheral/gpio/cy_gpio.h **** * \param pinNum
1235:Generated_Source\PSoC6\pdl\drivers/peripheral/gpio/cy_gpio.h **** * Position of the pin bit-field within the port register
1236:Generated_Source\PSoC6\pdl\drivers/peripheral/gpio/cy_gpio.h **** *
1237:Generated_Source\PSoC6\pdl\drivers/peripheral/gpio/cy_gpio.h **** * \param value
1238:Generated_Source\PSoC6\pdl\drivers/peripheral/gpio/cy_gpio.h **** * SIO pair input buffer mode. Options are detailed in \ref group_gpio_sioIbuf macros
1239:Generated_Source\PSoC6\pdl\drivers/peripheral/gpio/cy_gpio.h **** *
1240:Generated_Source\PSoC6\pdl\drivers/peripheral/gpio/cy_gpio.h **** * \return
1241:Generated_Source\PSoC6\pdl\drivers/peripheral/gpio/cy_gpio.h **** * void
1242:Generated_Source\PSoC6\pdl\drivers/peripheral/gpio/cy_gpio.h **** *
1243:Generated_Source\PSoC6\pdl\drivers/peripheral/gpio/cy_gpio.h **** * \note 
1244:Generated_Source\PSoC6\pdl\drivers/peripheral/gpio/cy_gpio.h **** * This function modifies a port register in a read-modify-write operation. It is
1245:Generated_Source\PSoC6\pdl\drivers/peripheral/gpio/cy_gpio.h **** * not thread safe as the resource is shared among multiple pins on a port.
1246:Generated_Source\PSoC6\pdl\drivers/peripheral/gpio/cy_gpio.h **** *
1247:Generated_Source\PSoC6\pdl\drivers/peripheral/gpio/cy_gpio.h **** * \funcusage
1248:Generated_Source\PSoC6\pdl\drivers/peripheral/gpio/cy_gpio.h **** * \snippet gpio/gpio_v1_10_sut_01.cydsn/main_cm4.c snippet_Cy_GPIO_SetIbufMode
1249:Generated_Source\PSoC6\pdl\drivers/peripheral/gpio/cy_gpio.h **** *
1250:Generated_Source\PSoC6\pdl\drivers/peripheral/gpio/cy_gpio.h **** *******************************************************************************/
1251:Generated_Source\PSoC6\pdl\drivers/peripheral/gpio/cy_gpio.h **** __STATIC_INLINE void Cy_GPIO_SetIbufMode(GPIO_PRT_Type* base, uint32_t pinNum, uint32_t value)
1252:Generated_Source\PSoC6\pdl\drivers/peripheral/gpio/cy_gpio.h **** {
1253:Generated_Source\PSoC6\pdl\drivers/peripheral/gpio/cy_gpio.h ****     uint32_t tempReg;
1254:Generated_Source\PSoC6\pdl\drivers/peripheral/gpio/cy_gpio.h ****     uint32_t pinLoc;
1255:Generated_Source\PSoC6\pdl\drivers/peripheral/gpio/cy_gpio.h **** 
1256:Generated_Source\PSoC6\pdl\drivers/peripheral/gpio/cy_gpio.h ****     CY_ASSERT_L2(CY_GPIO_IS_PIN_VALID(pinNum));
1257:Generated_Source\PSoC6\pdl\drivers/peripheral/gpio/cy_gpio.h ****     CY_ASSERT_L2(CY_GPIO_IS_VALUE_VALID(value));
1258:Generated_Source\PSoC6\pdl\drivers/peripheral/gpio/cy_gpio.h **** 
1259:Generated_Source\PSoC6\pdl\drivers/peripheral/gpio/cy_gpio.h ****     pinLoc = ((pinNum & CY_GPIO_SIO_ODD_PIN_MASK) << CY_GPIO_CFG_SIO_OFFSET) + CY_GPIO_IBUF_SHIFT;
1260:Generated_Source\PSoC6\pdl\drivers/peripheral/gpio/cy_gpio.h ****     tempReg = (base->CFG_SIO & ~(CY_GPIO_IBUF_MASK << pinLoc));
1261:Generated_Source\PSoC6\pdl\drivers/peripheral/gpio/cy_gpio.h ****     base->CFG_SIO = tempReg | ((value & CY_GPIO_IBUF_MASK) << pinLoc);
1262:Generated_Source\PSoC6\pdl\drivers/peripheral/gpio/cy_gpio.h **** }
1263:Generated_Source\PSoC6\pdl\drivers/peripheral/gpio/cy_gpio.h **** 
1264:Generated_Source\PSoC6\pdl\drivers/peripheral/gpio/cy_gpio.h **** 
1265:Generated_Source\PSoC6\pdl\drivers/peripheral/gpio/cy_gpio.h **** /*******************************************************************************
1266:Generated_Source\PSoC6\pdl\drivers/peripheral/gpio/cy_gpio.h **** * Function Name: Cy_GPIO_GetIbufMode
1267:Generated_Source\PSoC6\pdl\drivers/peripheral/gpio/cy_gpio.h **** ****************************************************************************//**
1268:Generated_Source\PSoC6\pdl\drivers/peripheral/gpio/cy_gpio.h **** *
1269:Generated_Source\PSoC6\pdl\drivers/peripheral/gpio/cy_gpio.h **** * \brief Returns the SIO pin pair input buffer mode.
1270:Generated_Source\PSoC6\pdl\drivers/peripheral/gpio/cy_gpio.h **** *
1271:Generated_Source\PSoC6\pdl\drivers/peripheral/gpio/cy_gpio.h **** * Note that this function has no effect on non-SIO pins.
1272:Generated_Source\PSoC6\pdl\drivers/peripheral/gpio/cy_gpio.h **** *
1273:Generated_Source\PSoC6\pdl\drivers/peripheral/gpio/cy_gpio.h **** * \param base
1274:Generated_Source\PSoC6\pdl\drivers/peripheral/gpio/cy_gpio.h **** * Pointer to the pin's port register base address
1275:Generated_Source\PSoC6\pdl\drivers/peripheral/gpio/cy_gpio.h **** *
1276:Generated_Source\PSoC6\pdl\drivers/peripheral/gpio/cy_gpio.h **** * \param pinNum
1277:Generated_Source\PSoC6\pdl\drivers/peripheral/gpio/cy_gpio.h **** * Position of the pin bit-field within the port register
1278:Generated_Source\PSoC6\pdl\drivers/peripheral/gpio/cy_gpio.h **** *
1279:Generated_Source\PSoC6\pdl\drivers/peripheral/gpio/cy_gpio.h **** * \return
ARM GAS  C:\Users\charl\AppData\Local\Temp\ccXtIxtO.s 			page 26


1280:Generated_Source\PSoC6\pdl\drivers/peripheral/gpio/cy_gpio.h **** * SIO pair input buffer mode. Options are detailed in \ref group_gpio_sioIbuf macros
1281:Generated_Source\PSoC6\pdl\drivers/peripheral/gpio/cy_gpio.h **** *
1282:Generated_Source\PSoC6\pdl\drivers/peripheral/gpio/cy_gpio.h **** * \funcusage
1283:Generated_Source\PSoC6\pdl\drivers/peripheral/gpio/cy_gpio.h **** * \snippet gpio/gpio_v1_10_sut_01.cydsn/main_cm4.c snippet_Cy_GPIO_SetIbufMode
1284:Generated_Source\PSoC6\pdl\drivers/peripheral/gpio/cy_gpio.h **** *
1285:Generated_Source\PSoC6\pdl\drivers/peripheral/gpio/cy_gpio.h **** *******************************************************************************/
1286:Generated_Source\PSoC6\pdl\drivers/peripheral/gpio/cy_gpio.h **** __STATIC_INLINE uint32_t Cy_GPIO_GetIbufMode(GPIO_PRT_Type* base, uint32_t pinNum)
1287:Generated_Source\PSoC6\pdl\drivers/peripheral/gpio/cy_gpio.h **** {
1288:Generated_Source\PSoC6\pdl\drivers/peripheral/gpio/cy_gpio.h ****     CY_ASSERT_L2(CY_GPIO_IS_PIN_VALID(pinNum));
1289:Generated_Source\PSoC6\pdl\drivers/peripheral/gpio/cy_gpio.h ****     
1290:Generated_Source\PSoC6\pdl\drivers/peripheral/gpio/cy_gpio.h ****     return (base->CFG_SIO >> (((pinNum & CY_GPIO_SIO_ODD_PIN_MASK) << CY_GPIO_CFG_SIO_OFFSET) + CY_
1291:Generated_Source\PSoC6\pdl\drivers/peripheral/gpio/cy_gpio.h **** }
1292:Generated_Source\PSoC6\pdl\drivers/peripheral/gpio/cy_gpio.h **** 
1293:Generated_Source\PSoC6\pdl\drivers/peripheral/gpio/cy_gpio.h **** 
1294:Generated_Source\PSoC6\pdl\drivers/peripheral/gpio/cy_gpio.h **** /*******************************************************************************
1295:Generated_Source\PSoC6\pdl\drivers/peripheral/gpio/cy_gpio.h **** * Function Name: Cy_GPIO_SetVtripSel
1296:Generated_Source\PSoC6\pdl\drivers/peripheral/gpio/cy_gpio.h **** ****************************************************************************//**
1297:Generated_Source\PSoC6\pdl\drivers/peripheral/gpio/cy_gpio.h **** *
1298:Generated_Source\PSoC6\pdl\drivers/peripheral/gpio/cy_gpio.h **** * \brief Configures the SIO pin pair input buffer trip point.
1299:Generated_Source\PSoC6\pdl\drivers/peripheral/gpio/cy_gpio.h **** *
1300:Generated_Source\PSoC6\pdl\drivers/peripheral/gpio/cy_gpio.h **** * Note that this function has no effect on non-SIO pins.
1301:Generated_Source\PSoC6\pdl\drivers/peripheral/gpio/cy_gpio.h **** *
1302:Generated_Source\PSoC6\pdl\drivers/peripheral/gpio/cy_gpio.h **** * \param base
1303:Generated_Source\PSoC6\pdl\drivers/peripheral/gpio/cy_gpio.h **** * Pointer to the pin's port register base address
1304:Generated_Source\PSoC6\pdl\drivers/peripheral/gpio/cy_gpio.h **** *
1305:Generated_Source\PSoC6\pdl\drivers/peripheral/gpio/cy_gpio.h **** * \param pinNum
1306:Generated_Source\PSoC6\pdl\drivers/peripheral/gpio/cy_gpio.h **** * Position of the pin bit-field within the port register
1307:Generated_Source\PSoC6\pdl\drivers/peripheral/gpio/cy_gpio.h **** *
1308:Generated_Source\PSoC6\pdl\drivers/peripheral/gpio/cy_gpio.h **** * \param value
1309:Generated_Source\PSoC6\pdl\drivers/peripheral/gpio/cy_gpio.h **** * SIO pair input buffer trip point. Options are detailed in \ref group_gpio_sioVtrip macros
1310:Generated_Source\PSoC6\pdl\drivers/peripheral/gpio/cy_gpio.h **** *
1311:Generated_Source\PSoC6\pdl\drivers/peripheral/gpio/cy_gpio.h **** * \return
1312:Generated_Source\PSoC6\pdl\drivers/peripheral/gpio/cy_gpio.h **** * void
1313:Generated_Source\PSoC6\pdl\drivers/peripheral/gpio/cy_gpio.h **** *
1314:Generated_Source\PSoC6\pdl\drivers/peripheral/gpio/cy_gpio.h **** * \note 
1315:Generated_Source\PSoC6\pdl\drivers/peripheral/gpio/cy_gpio.h **** * This function modifies a port register in a read-modify-write operation. It is
1316:Generated_Source\PSoC6\pdl\drivers/peripheral/gpio/cy_gpio.h **** * not thread safe as the resource is shared among multiple pins on a port.
1317:Generated_Source\PSoC6\pdl\drivers/peripheral/gpio/cy_gpio.h **** *
1318:Generated_Source\PSoC6\pdl\drivers/peripheral/gpio/cy_gpio.h **** * \funcusage
1319:Generated_Source\PSoC6\pdl\drivers/peripheral/gpio/cy_gpio.h **** * \snippet gpio/gpio_v1_10_sut_01.cydsn/main_cm4.c snippet_Cy_GPIO_SetVtripSel
1320:Generated_Source\PSoC6\pdl\drivers/peripheral/gpio/cy_gpio.h **** *
1321:Generated_Source\PSoC6\pdl\drivers/peripheral/gpio/cy_gpio.h **** *******************************************************************************/
1322:Generated_Source\PSoC6\pdl\drivers/peripheral/gpio/cy_gpio.h **** __STATIC_INLINE void Cy_GPIO_SetVtripSel(GPIO_PRT_Type* base, uint32_t pinNum, uint32_t value)
1323:Generated_Source\PSoC6\pdl\drivers/peripheral/gpio/cy_gpio.h **** {
1324:Generated_Source\PSoC6\pdl\drivers/peripheral/gpio/cy_gpio.h ****     uint32_t tempReg;
1325:Generated_Source\PSoC6\pdl\drivers/peripheral/gpio/cy_gpio.h ****     uint32_t pinLoc;
1326:Generated_Source\PSoC6\pdl\drivers/peripheral/gpio/cy_gpio.h **** 
1327:Generated_Source\PSoC6\pdl\drivers/peripheral/gpio/cy_gpio.h ****     CY_ASSERT_L2(CY_GPIO_IS_PIN_VALID(pinNum));
1328:Generated_Source\PSoC6\pdl\drivers/peripheral/gpio/cy_gpio.h ****     CY_ASSERT_L2(CY_GPIO_IS_VALUE_VALID(value));
1329:Generated_Source\PSoC6\pdl\drivers/peripheral/gpio/cy_gpio.h **** 
1330:Generated_Source\PSoC6\pdl\drivers/peripheral/gpio/cy_gpio.h ****     pinLoc = ((pinNum & CY_GPIO_SIO_ODD_PIN_MASK) << CY_GPIO_CFG_SIO_OFFSET) + CY_GPIO_VTRIP_SEL_SH
1331:Generated_Source\PSoC6\pdl\drivers/peripheral/gpio/cy_gpio.h ****     tempReg = (base->CFG_SIO & ~(CY_GPIO_VTRIP_SEL_MASK << pinLoc));
1332:Generated_Source\PSoC6\pdl\drivers/peripheral/gpio/cy_gpio.h ****     base->CFG_SIO = tempReg | ((value & CY_GPIO_VTRIP_SEL_MASK) << pinLoc);
1333:Generated_Source\PSoC6\pdl\drivers/peripheral/gpio/cy_gpio.h **** }
1334:Generated_Source\PSoC6\pdl\drivers/peripheral/gpio/cy_gpio.h **** 
1335:Generated_Source\PSoC6\pdl\drivers/peripheral/gpio/cy_gpio.h **** 
1336:Generated_Source\PSoC6\pdl\drivers/peripheral/gpio/cy_gpio.h **** /*******************************************************************************
ARM GAS  C:\Users\charl\AppData\Local\Temp\ccXtIxtO.s 			page 27


1337:Generated_Source\PSoC6\pdl\drivers/peripheral/gpio/cy_gpio.h **** * Function Name: Cy_GPIO_GetVtripSel
1338:Generated_Source\PSoC6\pdl\drivers/peripheral/gpio/cy_gpio.h **** ****************************************************************************//**
1339:Generated_Source\PSoC6\pdl\drivers/peripheral/gpio/cy_gpio.h **** *
1340:Generated_Source\PSoC6\pdl\drivers/peripheral/gpio/cy_gpio.h **** * \brief Returns the SIO pin pair input buffer trip point.
1341:Generated_Source\PSoC6\pdl\drivers/peripheral/gpio/cy_gpio.h **** *
1342:Generated_Source\PSoC6\pdl\drivers/peripheral/gpio/cy_gpio.h **** * Note that this function has no effect on non-SIO pins.
1343:Generated_Source\PSoC6\pdl\drivers/peripheral/gpio/cy_gpio.h **** *
1344:Generated_Source\PSoC6\pdl\drivers/peripheral/gpio/cy_gpio.h **** * \param base
1345:Generated_Source\PSoC6\pdl\drivers/peripheral/gpio/cy_gpio.h **** * Pointer to the pin's port register base address
1346:Generated_Source\PSoC6\pdl\drivers/peripheral/gpio/cy_gpio.h **** *
1347:Generated_Source\PSoC6\pdl\drivers/peripheral/gpio/cy_gpio.h **** * \param pinNum
1348:Generated_Source\PSoC6\pdl\drivers/peripheral/gpio/cy_gpio.h **** * Position of the pin bit-field within the port register
1349:Generated_Source\PSoC6\pdl\drivers/peripheral/gpio/cy_gpio.h **** *
1350:Generated_Source\PSoC6\pdl\drivers/peripheral/gpio/cy_gpio.h **** * \return
1351:Generated_Source\PSoC6\pdl\drivers/peripheral/gpio/cy_gpio.h **** * SIO pair input buffer trip point. Options are detailed in \ref group_gpio_sioVtrip macros
1352:Generated_Source\PSoC6\pdl\drivers/peripheral/gpio/cy_gpio.h **** *
1353:Generated_Source\PSoC6\pdl\drivers/peripheral/gpio/cy_gpio.h **** * \funcusage
1354:Generated_Source\PSoC6\pdl\drivers/peripheral/gpio/cy_gpio.h **** * \snippet gpio/gpio_v1_10_sut_01.cydsn/main_cm4.c snippet_Cy_GPIO_SetVtripSel
1355:Generated_Source\PSoC6\pdl\drivers/peripheral/gpio/cy_gpio.h **** *
1356:Generated_Source\PSoC6\pdl\drivers/peripheral/gpio/cy_gpio.h **** *******************************************************************************/
1357:Generated_Source\PSoC6\pdl\drivers/peripheral/gpio/cy_gpio.h **** __STATIC_INLINE uint32_t Cy_GPIO_GetVtripSel(GPIO_PRT_Type* base, uint32_t pinNum)
1358:Generated_Source\PSoC6\pdl\drivers/peripheral/gpio/cy_gpio.h **** {
1359:Generated_Source\PSoC6\pdl\drivers/peripheral/gpio/cy_gpio.h ****     CY_ASSERT_L2(CY_GPIO_IS_PIN_VALID(pinNum));
1360:Generated_Source\PSoC6\pdl\drivers/peripheral/gpio/cy_gpio.h **** 
1361:Generated_Source\PSoC6\pdl\drivers/peripheral/gpio/cy_gpio.h ****     return (base->CFG_SIO >> (((pinNum & CY_GPIO_SIO_ODD_PIN_MASK) << CY_GPIO_CFG_SIO_OFFSET) + CY_
1362:Generated_Source\PSoC6\pdl\drivers/peripheral/gpio/cy_gpio.h **** }
1363:Generated_Source\PSoC6\pdl\drivers/peripheral/gpio/cy_gpio.h **** 
1364:Generated_Source\PSoC6\pdl\drivers/peripheral/gpio/cy_gpio.h **** 
1365:Generated_Source\PSoC6\pdl\drivers/peripheral/gpio/cy_gpio.h **** /*******************************************************************************
1366:Generated_Source\PSoC6\pdl\drivers/peripheral/gpio/cy_gpio.h **** * Function Name: Cy_GPIO_SetVrefSel
1367:Generated_Source\PSoC6\pdl\drivers/peripheral/gpio/cy_gpio.h **** ****************************************************************************//**
1368:Generated_Source\PSoC6\pdl\drivers/peripheral/gpio/cy_gpio.h **** *
1369:Generated_Source\PSoC6\pdl\drivers/peripheral/gpio/cy_gpio.h **** * \brief Configures the SIO reference voltage for the input buffer trip point.
1370:Generated_Source\PSoC6\pdl\drivers/peripheral/gpio/cy_gpio.h **** *
1371:Generated_Source\PSoC6\pdl\drivers/peripheral/gpio/cy_gpio.h **** * Note that this function has no effect on non-SIO pins.
1372:Generated_Source\PSoC6\pdl\drivers/peripheral/gpio/cy_gpio.h **** *
1373:Generated_Source\PSoC6\pdl\drivers/peripheral/gpio/cy_gpio.h **** * \param base
1374:Generated_Source\PSoC6\pdl\drivers/peripheral/gpio/cy_gpio.h **** * Pointer to the pin's port register base address
1375:Generated_Source\PSoC6\pdl\drivers/peripheral/gpio/cy_gpio.h **** *
1376:Generated_Source\PSoC6\pdl\drivers/peripheral/gpio/cy_gpio.h **** * \param pinNum
1377:Generated_Source\PSoC6\pdl\drivers/peripheral/gpio/cy_gpio.h **** * Position of the pin bit-field within the port register
1378:Generated_Source\PSoC6\pdl\drivers/peripheral/gpio/cy_gpio.h **** *
1379:Generated_Source\PSoC6\pdl\drivers/peripheral/gpio/cy_gpio.h **** * \param value
1380:Generated_Source\PSoC6\pdl\drivers/peripheral/gpio/cy_gpio.h **** * SIO pair reference voltage. Options are detailed in \ref group_gpio_sioVref macros
1381:Generated_Source\PSoC6\pdl\drivers/peripheral/gpio/cy_gpio.h **** *
1382:Generated_Source\PSoC6\pdl\drivers/peripheral/gpio/cy_gpio.h **** * \return
1383:Generated_Source\PSoC6\pdl\drivers/peripheral/gpio/cy_gpio.h **** * void
1384:Generated_Source\PSoC6\pdl\drivers/peripheral/gpio/cy_gpio.h **** *
1385:Generated_Source\PSoC6\pdl\drivers/peripheral/gpio/cy_gpio.h **** * \note 
1386:Generated_Source\PSoC6\pdl\drivers/peripheral/gpio/cy_gpio.h **** * This function modifies a port register in a read-modify-write operation. It is
1387:Generated_Source\PSoC6\pdl\drivers/peripheral/gpio/cy_gpio.h **** * not thread safe as the resource is shared among multiple pins on a port.
1388:Generated_Source\PSoC6\pdl\drivers/peripheral/gpio/cy_gpio.h **** *
1389:Generated_Source\PSoC6\pdl\drivers/peripheral/gpio/cy_gpio.h **** * \funcusage
1390:Generated_Source\PSoC6\pdl\drivers/peripheral/gpio/cy_gpio.h **** * \snippet gpio/gpio_v1_10_sut_01.cydsn/main_cm4.c snippet_Cy_GPIO_SetVrefSel
1391:Generated_Source\PSoC6\pdl\drivers/peripheral/gpio/cy_gpio.h **** *
1392:Generated_Source\PSoC6\pdl\drivers/peripheral/gpio/cy_gpio.h **** *******************************************************************************/
1393:Generated_Source\PSoC6\pdl\drivers/peripheral/gpio/cy_gpio.h **** __STATIC_INLINE void Cy_GPIO_SetVrefSel(GPIO_PRT_Type* base, uint32_t pinNum, uint32_t value)
ARM GAS  C:\Users\charl\AppData\Local\Temp\ccXtIxtO.s 			page 28


1394:Generated_Source\PSoC6\pdl\drivers/peripheral/gpio/cy_gpio.h **** {
1395:Generated_Source\PSoC6\pdl\drivers/peripheral/gpio/cy_gpio.h ****     uint32_t tempReg;
1396:Generated_Source\PSoC6\pdl\drivers/peripheral/gpio/cy_gpio.h ****     uint32_t pinLoc;
1397:Generated_Source\PSoC6\pdl\drivers/peripheral/gpio/cy_gpio.h **** 
1398:Generated_Source\PSoC6\pdl\drivers/peripheral/gpio/cy_gpio.h ****     CY_ASSERT_L2(CY_GPIO_IS_PIN_VALID(pinNum));
1399:Generated_Source\PSoC6\pdl\drivers/peripheral/gpio/cy_gpio.h ****     CY_ASSERT_L2(CY_GPIO_IS_VREF_SEL_VALID(value));
1400:Generated_Source\PSoC6\pdl\drivers/peripheral/gpio/cy_gpio.h ****     
1401:Generated_Source\PSoC6\pdl\drivers/peripheral/gpio/cy_gpio.h ****     pinLoc = ((pinNum & CY_GPIO_SIO_ODD_PIN_MASK) << CY_GPIO_CFG_SIO_OFFSET) + CY_GPIO_VREF_SEL_SHI
1402:Generated_Source\PSoC6\pdl\drivers/peripheral/gpio/cy_gpio.h ****     tempReg = (base->CFG_SIO & ~(CY_GPIO_VREF_SEL_MASK << pinLoc));
1403:Generated_Source\PSoC6\pdl\drivers/peripheral/gpio/cy_gpio.h ****     base->CFG_SIO = tempReg | ((value & CY_GPIO_VREF_SEL_MASK) << pinLoc);
1404:Generated_Source\PSoC6\pdl\drivers/peripheral/gpio/cy_gpio.h **** }
1405:Generated_Source\PSoC6\pdl\drivers/peripheral/gpio/cy_gpio.h **** 
1406:Generated_Source\PSoC6\pdl\drivers/peripheral/gpio/cy_gpio.h **** 
1407:Generated_Source\PSoC6\pdl\drivers/peripheral/gpio/cy_gpio.h **** /*******************************************************************************
1408:Generated_Source\PSoC6\pdl\drivers/peripheral/gpio/cy_gpio.h **** * Function Name: Cy_GPIO_GetVrefSel
1409:Generated_Source\PSoC6\pdl\drivers/peripheral/gpio/cy_gpio.h **** ****************************************************************************//**
1410:Generated_Source\PSoC6\pdl\drivers/peripheral/gpio/cy_gpio.h **** *
1411:Generated_Source\PSoC6\pdl\drivers/peripheral/gpio/cy_gpio.h **** * \brief Returns the SIO reference voltage for the input buffer trip point.
1412:Generated_Source\PSoC6\pdl\drivers/peripheral/gpio/cy_gpio.h **** *
1413:Generated_Source\PSoC6\pdl\drivers/peripheral/gpio/cy_gpio.h **** * Note that this function has no effect on non-SIO pins.
1414:Generated_Source\PSoC6\pdl\drivers/peripheral/gpio/cy_gpio.h **** *
1415:Generated_Source\PSoC6\pdl\drivers/peripheral/gpio/cy_gpio.h **** * \param base
1416:Generated_Source\PSoC6\pdl\drivers/peripheral/gpio/cy_gpio.h **** * Pointer to the pin's port register base address
1417:Generated_Source\PSoC6\pdl\drivers/peripheral/gpio/cy_gpio.h **** *
1418:Generated_Source\PSoC6\pdl\drivers/peripheral/gpio/cy_gpio.h **** * \param pinNum
1419:Generated_Source\PSoC6\pdl\drivers/peripheral/gpio/cy_gpio.h **** * Position of the pin bit-field within the port register
1420:Generated_Source\PSoC6\pdl\drivers/peripheral/gpio/cy_gpio.h **** *
1421:Generated_Source\PSoC6\pdl\drivers/peripheral/gpio/cy_gpio.h **** * \return
1422:Generated_Source\PSoC6\pdl\drivers/peripheral/gpio/cy_gpio.h **** * SIO pair reference voltage. Options are detailed in \ref group_gpio_sioVref macros
1423:Generated_Source\PSoC6\pdl\drivers/peripheral/gpio/cy_gpio.h **** *
1424:Generated_Source\PSoC6\pdl\drivers/peripheral/gpio/cy_gpio.h **** * \funcusage
1425:Generated_Source\PSoC6\pdl\drivers/peripheral/gpio/cy_gpio.h **** * \snippet gpio/gpio_v1_10_sut_01.cydsn/main_cm4.c snippet_Cy_GPIO_SetVrefSel
1426:Generated_Source\PSoC6\pdl\drivers/peripheral/gpio/cy_gpio.h **** *
1427:Generated_Source\PSoC6\pdl\drivers/peripheral/gpio/cy_gpio.h **** *******************************************************************************/
1428:Generated_Source\PSoC6\pdl\drivers/peripheral/gpio/cy_gpio.h **** __STATIC_INLINE uint32_t Cy_GPIO_GetVrefSel(GPIO_PRT_Type* base, uint32_t pinNum)
1429:Generated_Source\PSoC6\pdl\drivers/peripheral/gpio/cy_gpio.h **** {
1430:Generated_Source\PSoC6\pdl\drivers/peripheral/gpio/cy_gpio.h ****     CY_ASSERT_L2(CY_GPIO_IS_PIN_VALID(pinNum));
1431:Generated_Source\PSoC6\pdl\drivers/peripheral/gpio/cy_gpio.h ****     
1432:Generated_Source\PSoC6\pdl\drivers/peripheral/gpio/cy_gpio.h ****     return (base->CFG_SIO >> (((pinNum & CY_GPIO_SIO_ODD_PIN_MASK) << CY_GPIO_CFG_SIO_OFFSET) + CY_
1433:Generated_Source\PSoC6\pdl\drivers/peripheral/gpio/cy_gpio.h **** }
1434:Generated_Source\PSoC6\pdl\drivers/peripheral/gpio/cy_gpio.h **** 
1435:Generated_Source\PSoC6\pdl\drivers/peripheral/gpio/cy_gpio.h **** 
1436:Generated_Source\PSoC6\pdl\drivers/peripheral/gpio/cy_gpio.h **** /*******************************************************************************
1437:Generated_Source\PSoC6\pdl\drivers/peripheral/gpio/cy_gpio.h **** * Function Name: Cy_GPIO_SetVohSel
1438:Generated_Source\PSoC6\pdl\drivers/peripheral/gpio/cy_gpio.h **** ****************************************************************************//**
1439:Generated_Source\PSoC6\pdl\drivers/peripheral/gpio/cy_gpio.h **** *
1440:Generated_Source\PSoC6\pdl\drivers/peripheral/gpio/cy_gpio.h **** * \brief Configures the regulated output reference multiplier for the SIO pin pair.
1441:Generated_Source\PSoC6\pdl\drivers/peripheral/gpio/cy_gpio.h **** *
1442:Generated_Source\PSoC6\pdl\drivers/peripheral/gpio/cy_gpio.h **** * The regulated output reference controls both the output level of digital output
1443:Generated_Source\PSoC6\pdl\drivers/peripheral/gpio/cy_gpio.h **** * pin and the input trip point of digital input pin in the SIO pair.
1444:Generated_Source\PSoC6\pdl\drivers/peripheral/gpio/cy_gpio.h **** *
1445:Generated_Source\PSoC6\pdl\drivers/peripheral/gpio/cy_gpio.h **** * Note that this function has no effect on non-SIO pins.
1446:Generated_Source\PSoC6\pdl\drivers/peripheral/gpio/cy_gpio.h **** *
1447:Generated_Source\PSoC6\pdl\drivers/peripheral/gpio/cy_gpio.h **** * \param base
1448:Generated_Source\PSoC6\pdl\drivers/peripheral/gpio/cy_gpio.h **** * Pointer to the pin's port register base address
1449:Generated_Source\PSoC6\pdl\drivers/peripheral/gpio/cy_gpio.h **** *
1450:Generated_Source\PSoC6\pdl\drivers/peripheral/gpio/cy_gpio.h **** * \param pinNum
ARM GAS  C:\Users\charl\AppData\Local\Temp\ccXtIxtO.s 			page 29


1451:Generated_Source\PSoC6\pdl\drivers/peripheral/gpio/cy_gpio.h **** * Position of the pin bit-field within the port register
1452:Generated_Source\PSoC6\pdl\drivers/peripheral/gpio/cy_gpio.h **** *
1453:Generated_Source\PSoC6\pdl\drivers/peripheral/gpio/cy_gpio.h **** * \param value
1454:Generated_Source\PSoC6\pdl\drivers/peripheral/gpio/cy_gpio.h **** * SIO pair reference voltage. Options are detailed in \ref group_gpio_sioVoh macros
1455:Generated_Source\PSoC6\pdl\drivers/peripheral/gpio/cy_gpio.h **** *
1456:Generated_Source\PSoC6\pdl\drivers/peripheral/gpio/cy_gpio.h **** * \return
1457:Generated_Source\PSoC6\pdl\drivers/peripheral/gpio/cy_gpio.h **** * void
1458:Generated_Source\PSoC6\pdl\drivers/peripheral/gpio/cy_gpio.h **** *
1459:Generated_Source\PSoC6\pdl\drivers/peripheral/gpio/cy_gpio.h **** * \note 
1460:Generated_Source\PSoC6\pdl\drivers/peripheral/gpio/cy_gpio.h **** * This function modifies a port register in a read-modify-write operation. It is
1461:Generated_Source\PSoC6\pdl\drivers/peripheral/gpio/cy_gpio.h **** * not thread safe as the resource is shared among multiple pins on a port.
1462:Generated_Source\PSoC6\pdl\drivers/peripheral/gpio/cy_gpio.h **** *
1463:Generated_Source\PSoC6\pdl\drivers/peripheral/gpio/cy_gpio.h **** * \funcusage
1464:Generated_Source\PSoC6\pdl\drivers/peripheral/gpio/cy_gpio.h **** * \snippet gpio/gpio_v1_10_sut_01.cydsn/main_cm4.c snippet_Cy_GPIO_SetVohSel
1465:Generated_Source\PSoC6\pdl\drivers/peripheral/gpio/cy_gpio.h **** *
1466:Generated_Source\PSoC6\pdl\drivers/peripheral/gpio/cy_gpio.h **** *******************************************************************************/
1467:Generated_Source\PSoC6\pdl\drivers/peripheral/gpio/cy_gpio.h **** __STATIC_INLINE void Cy_GPIO_SetVohSel(GPIO_PRT_Type* base, uint32_t pinNum, uint32_t value)
1468:Generated_Source\PSoC6\pdl\drivers/peripheral/gpio/cy_gpio.h **** {
1469:Generated_Source\PSoC6\pdl\drivers/peripheral/gpio/cy_gpio.h ****     uint32_t tempReg;
1470:Generated_Source\PSoC6\pdl\drivers/peripheral/gpio/cy_gpio.h ****     uint32_t pinLoc;
1471:Generated_Source\PSoC6\pdl\drivers/peripheral/gpio/cy_gpio.h **** 
1472:Generated_Source\PSoC6\pdl\drivers/peripheral/gpio/cy_gpio.h ****     CY_ASSERT_L2(CY_GPIO_IS_PIN_VALID(pinNum));
1473:Generated_Source\PSoC6\pdl\drivers/peripheral/gpio/cy_gpio.h ****     CY_ASSERT_L2(CY_GPIO_IS_VOH_SEL_VALID(value));
1474:Generated_Source\PSoC6\pdl\drivers/peripheral/gpio/cy_gpio.h **** 
1475:Generated_Source\PSoC6\pdl\drivers/peripheral/gpio/cy_gpio.h ****     pinLoc = ((pinNum & CY_GPIO_SIO_ODD_PIN_MASK) << CY_GPIO_CFG_SIO_OFFSET) + CY_GPIO_VOH_SEL_SHIF
1476:Generated_Source\PSoC6\pdl\drivers/peripheral/gpio/cy_gpio.h ****     tempReg = (base->CFG_SIO & ~(CY_GPIO_VOH_SEL_MASK << pinLoc));
1477:Generated_Source\PSoC6\pdl\drivers/peripheral/gpio/cy_gpio.h ****     base->CFG_SIO = tempReg | ((value & CY_GPIO_VOH_SEL_MASK) << pinLoc);
1478:Generated_Source\PSoC6\pdl\drivers/peripheral/gpio/cy_gpio.h **** }
1479:Generated_Source\PSoC6\pdl\drivers/peripheral/gpio/cy_gpio.h **** 
1480:Generated_Source\PSoC6\pdl\drivers/peripheral/gpio/cy_gpio.h **** 
1481:Generated_Source\PSoC6\pdl\drivers/peripheral/gpio/cy_gpio.h **** /*******************************************************************************
1482:Generated_Source\PSoC6\pdl\drivers/peripheral/gpio/cy_gpio.h **** * Function Name: Cy_GPIO_GetVohSel
1483:Generated_Source\PSoC6\pdl\drivers/peripheral/gpio/cy_gpio.h **** ****************************************************************************//**
1484:Generated_Source\PSoC6\pdl\drivers/peripheral/gpio/cy_gpio.h **** *
1485:Generated_Source\PSoC6\pdl\drivers/peripheral/gpio/cy_gpio.h **** * \brief Returns the regulated output reference multiplier for the SIO pin pair.
1486:Generated_Source\PSoC6\pdl\drivers/peripheral/gpio/cy_gpio.h **** *
1487:Generated_Source\PSoC6\pdl\drivers/peripheral/gpio/cy_gpio.h **** * Note that this function has no effect on non-SIO pins.
1488:Generated_Source\PSoC6\pdl\drivers/peripheral/gpio/cy_gpio.h **** *
1489:Generated_Source\PSoC6\pdl\drivers/peripheral/gpio/cy_gpio.h **** * \param base
1490:Generated_Source\PSoC6\pdl\drivers/peripheral/gpio/cy_gpio.h **** * Pointer to the pin's port register base address
1491:Generated_Source\PSoC6\pdl\drivers/peripheral/gpio/cy_gpio.h **** *
1492:Generated_Source\PSoC6\pdl\drivers/peripheral/gpio/cy_gpio.h **** * \param pinNum
1493:Generated_Source\PSoC6\pdl\drivers/peripheral/gpio/cy_gpio.h **** * Position of the pin bit-field within the port register
1494:Generated_Source\PSoC6\pdl\drivers/peripheral/gpio/cy_gpio.h **** *
1495:Generated_Source\PSoC6\pdl\drivers/peripheral/gpio/cy_gpio.h **** * \return
1496:Generated_Source\PSoC6\pdl\drivers/peripheral/gpio/cy_gpio.h **** * SIO pair reference voltage. Options are detailed in \ref group_gpio_sioVoh macros
1497:Generated_Source\PSoC6\pdl\drivers/peripheral/gpio/cy_gpio.h **** *
1498:Generated_Source\PSoC6\pdl\drivers/peripheral/gpio/cy_gpio.h **** * \funcusage
1499:Generated_Source\PSoC6\pdl\drivers/peripheral/gpio/cy_gpio.h **** * \snippet gpio/gpio_v1_10_sut_01.cydsn/main_cm4.c snippet_Cy_GPIO_SetVohSel
1500:Generated_Source\PSoC6\pdl\drivers/peripheral/gpio/cy_gpio.h **** *
1501:Generated_Source\PSoC6\pdl\drivers/peripheral/gpio/cy_gpio.h **** *******************************************************************************/
1502:Generated_Source\PSoC6\pdl\drivers/peripheral/gpio/cy_gpio.h **** __STATIC_INLINE uint32_t Cy_GPIO_GetVohSel(GPIO_PRT_Type* base, uint32_t pinNum)
1503:Generated_Source\PSoC6\pdl\drivers/peripheral/gpio/cy_gpio.h **** {
1504:Generated_Source\PSoC6\pdl\drivers/peripheral/gpio/cy_gpio.h ****     CY_ASSERT_L2(CY_GPIO_IS_PIN_VALID(pinNum));
1505:Generated_Source\PSoC6\pdl\drivers/peripheral/gpio/cy_gpio.h ****     
1506:Generated_Source\PSoC6\pdl\drivers/peripheral/gpio/cy_gpio.h ****     return (base->CFG_SIO >> (((pinNum & CY_GPIO_SIO_ODD_PIN_MASK) << CY_GPIO_CFG_SIO_OFFSET) + CY_
1507:Generated_Source\PSoC6\pdl\drivers/peripheral/gpio/cy_gpio.h **** }
ARM GAS  C:\Users\charl\AppData\Local\Temp\ccXtIxtO.s 			page 30


1508:Generated_Source\PSoC6\pdl\drivers/peripheral/gpio/cy_gpio.h **** 
1509:Generated_Source\PSoC6\pdl\drivers/peripheral/gpio/cy_gpio.h **** /** \} group_gpio_functions_sio */
1510:Generated_Source\PSoC6\pdl\drivers/peripheral/gpio/cy_gpio.h **** 
1511:Generated_Source\PSoC6\pdl\drivers/peripheral/gpio/cy_gpio.h **** /**
1512:Generated_Source\PSoC6\pdl\drivers/peripheral/gpio/cy_gpio.h **** * \addtogroup group_gpio_functions_interrupt
1513:Generated_Source\PSoC6\pdl\drivers/peripheral/gpio/cy_gpio.h **** * \{
1514:Generated_Source\PSoC6\pdl\drivers/peripheral/gpio/cy_gpio.h **** */
1515:Generated_Source\PSoC6\pdl\drivers/peripheral/gpio/cy_gpio.h **** 
1516:Generated_Source\PSoC6\pdl\drivers/peripheral/gpio/cy_gpio.h **** /*******************************************************************************
1517:Generated_Source\PSoC6\pdl\drivers/peripheral/gpio/cy_gpio.h **** * Function Name: Cy_GPIO_GetInterruptStatus
1518:Generated_Source\PSoC6\pdl\drivers/peripheral/gpio/cy_gpio.h **** ****************************************************************************//**
1519:Generated_Source\PSoC6\pdl\drivers/peripheral/gpio/cy_gpio.h **** *
1520:Generated_Source\PSoC6\pdl\drivers/peripheral/gpio/cy_gpio.h **** * \brief Returns the current unmasked interrupt state of the pin.
1521:Generated_Source\PSoC6\pdl\drivers/peripheral/gpio/cy_gpio.h **** *
1522:Generated_Source\PSoC6\pdl\drivers/peripheral/gpio/cy_gpio.h **** * The core processor's NVIC is triggered by the masked interrupt bits. This 
1523:Generated_Source\PSoC6\pdl\drivers/peripheral/gpio/cy_gpio.h **** * function allows reading the unmasked interrupt state. Whether the bit
1524:Generated_Source\PSoC6\pdl\drivers/peripheral/gpio/cy_gpio.h **** * positions actually trigger the interrupt are defined by the interrupt mask bits.
1525:Generated_Source\PSoC6\pdl\drivers/peripheral/gpio/cy_gpio.h **** *
1526:Generated_Source\PSoC6\pdl\drivers/peripheral/gpio/cy_gpio.h **** * \param base
1527:Generated_Source\PSoC6\pdl\drivers/peripheral/gpio/cy_gpio.h **** * Pointer to the pin's port register base address
1528:Generated_Source\PSoC6\pdl\drivers/peripheral/gpio/cy_gpio.h **** *
1529:Generated_Source\PSoC6\pdl\drivers/peripheral/gpio/cy_gpio.h **** * \param pinNum
1530:Generated_Source\PSoC6\pdl\drivers/peripheral/gpio/cy_gpio.h **** * Position of the pin bit-field within the port register
1531:Generated_Source\PSoC6\pdl\drivers/peripheral/gpio/cy_gpio.h **** * Bit position 8 is the routed pin through the port glitch filter.
1532:Generated_Source\PSoC6\pdl\drivers/peripheral/gpio/cy_gpio.h **** *
1533:Generated_Source\PSoC6\pdl\drivers/peripheral/gpio/cy_gpio.h **** * \return
1534:Generated_Source\PSoC6\pdl\drivers/peripheral/gpio/cy_gpio.h **** * 0 = Pin interrupt condition not detected
1535:Generated_Source\PSoC6\pdl\drivers/peripheral/gpio/cy_gpio.h **** * 1 = Pin interrupt condition detected
1536:Generated_Source\PSoC6\pdl\drivers/peripheral/gpio/cy_gpio.h **** *
1537:Generated_Source\PSoC6\pdl\drivers/peripheral/gpio/cy_gpio.h **** * \funcusage
1538:Generated_Source\PSoC6\pdl\drivers/peripheral/gpio/cy_gpio.h **** * \snippet gpio/gpio_v1_10_sut_01.cydsn/main_cm4.c snippet_Cy_GPIO_GetInterruptStatus
1539:Generated_Source\PSoC6\pdl\drivers/peripheral/gpio/cy_gpio.h **** *
1540:Generated_Source\PSoC6\pdl\drivers/peripheral/gpio/cy_gpio.h **** *******************************************************************************/
1541:Generated_Source\PSoC6\pdl\drivers/peripheral/gpio/cy_gpio.h **** __STATIC_INLINE uint32_t Cy_GPIO_GetInterruptStatus(GPIO_PRT_Type* base, uint32_t pinNum)
1542:Generated_Source\PSoC6\pdl\drivers/peripheral/gpio/cy_gpio.h **** {
1543:Generated_Source\PSoC6\pdl\drivers/peripheral/gpio/cy_gpio.h ****     CY_ASSERT_L2(CY_GPIO_IS_FILTER_PIN_VALID(pinNum));
1544:Generated_Source\PSoC6\pdl\drivers/peripheral/gpio/cy_gpio.h ****     
1545:Generated_Source\PSoC6\pdl\drivers/peripheral/gpio/cy_gpio.h ****     return (base->INTR >> pinNum) & CY_GPIO_INTR_STATUS_MASK;
1546:Generated_Source\PSoC6\pdl\drivers/peripheral/gpio/cy_gpio.h **** }
1547:Generated_Source\PSoC6\pdl\drivers/peripheral/gpio/cy_gpio.h **** 
1548:Generated_Source\PSoC6\pdl\drivers/peripheral/gpio/cy_gpio.h **** 
1549:Generated_Source\PSoC6\pdl\drivers/peripheral/gpio/cy_gpio.h **** /*******************************************************************************
1550:Generated_Source\PSoC6\pdl\drivers/peripheral/gpio/cy_gpio.h **** * Function Name: Cy_GPIO_ClearInterrupt
1551:Generated_Source\PSoC6\pdl\drivers/peripheral/gpio/cy_gpio.h **** ****************************************************************************//**
1552:Generated_Source\PSoC6\pdl\drivers/peripheral/gpio/cy_gpio.h **** *
1553:Generated_Source\PSoC6\pdl\drivers/peripheral/gpio/cy_gpio.h **** * \brief Clears the triggered pin interrupt.
1554:Generated_Source\PSoC6\pdl\drivers/peripheral/gpio/cy_gpio.h **** *
1555:Generated_Source\PSoC6\pdl\drivers/peripheral/gpio/cy_gpio.h **** * \param base
1556:Generated_Source\PSoC6\pdl\drivers/peripheral/gpio/cy_gpio.h **** * Pointer to the pin's port register base address
1557:Generated_Source\PSoC6\pdl\drivers/peripheral/gpio/cy_gpio.h **** *
1558:Generated_Source\PSoC6\pdl\drivers/peripheral/gpio/cy_gpio.h **** * \param pinNum
1559:Generated_Source\PSoC6\pdl\drivers/peripheral/gpio/cy_gpio.h **** * Position of the pin bit-field within the port register
1560:Generated_Source\PSoC6\pdl\drivers/peripheral/gpio/cy_gpio.h **** * Bit position 8 is the routed pin through the port glitch filter.
1561:Generated_Source\PSoC6\pdl\drivers/peripheral/gpio/cy_gpio.h **** *
1562:Generated_Source\PSoC6\pdl\drivers/peripheral/gpio/cy_gpio.h **** * \return
1563:Generated_Source\PSoC6\pdl\drivers/peripheral/gpio/cy_gpio.h **** * void
1564:Generated_Source\PSoC6\pdl\drivers/peripheral/gpio/cy_gpio.h **** *
ARM GAS  C:\Users\charl\AppData\Local\Temp\ccXtIxtO.s 			page 31


1565:Generated_Source\PSoC6\pdl\drivers/peripheral/gpio/cy_gpio.h **** * \funcusage
1566:Generated_Source\PSoC6\pdl\drivers/peripheral/gpio/cy_gpio.h **** * \snippet gpio/gpio_v1_10_sut_01.cydsn/main_cm4.c snippet_Cy_GPIO_ClearInterrupt
1567:Generated_Source\PSoC6\pdl\drivers/peripheral/gpio/cy_gpio.h **** *
1568:Generated_Source\PSoC6\pdl\drivers/peripheral/gpio/cy_gpio.h **** *******************************************************************************/
1569:Generated_Source\PSoC6\pdl\drivers/peripheral/gpio/cy_gpio.h **** __STATIC_INLINE void Cy_GPIO_ClearInterrupt(GPIO_PRT_Type* base, uint32_t pinNum)
1570:Generated_Source\PSoC6\pdl\drivers/peripheral/gpio/cy_gpio.h **** {
1571:Generated_Source\PSoC6\pdl\drivers/peripheral/gpio/cy_gpio.h ****     CY_ASSERT_L2(CY_GPIO_IS_FILTER_PIN_VALID(pinNum));
1572:Generated_Source\PSoC6\pdl\drivers/peripheral/gpio/cy_gpio.h ****     
1573:Generated_Source\PSoC6\pdl\drivers/peripheral/gpio/cy_gpio.h ****     /* Any INTR MMIO registers AHB clearing must be preceded with an AHB read access */
1574:Generated_Source\PSoC6\pdl\drivers/peripheral/gpio/cy_gpio.h ****     (void)base->INTR;
 106              		.loc 2 1574 0
 107 000c 0B4B     		ldr	r3, .L11+4
 108 000e 5A69     		ldr	r2, [r3, #20]
1575:Generated_Source\PSoC6\pdl\drivers/peripheral/gpio/cy_gpio.h **** 
1576:Generated_Source\PSoC6\pdl\drivers/peripheral/gpio/cy_gpio.h ****     base->INTR = CY_GPIO_INTR_STATUS_MASK << pinNum;
 109              		.loc 2 1576 0
 110 0010 1022     		movs	r2, #16
 111 0012 5A61     		str	r2, [r3, #20]
1577:Generated_Source\PSoC6\pdl\drivers/peripheral/gpio/cy_gpio.h **** 
1578:Generated_Source\PSoC6\pdl\drivers/peripheral/gpio/cy_gpio.h ****     /* This read ensures that the initial write has been flushed out to the hardware */
1579:Generated_Source\PSoC6\pdl\drivers/peripheral/gpio/cy_gpio.h ****     (void)base->INTR;
 112              		.loc 2 1579 0
 113 0014 5B69     		ldr	r3, [r3, #20]
 114              	.LVL8:
 115              	.LBE27:
 116              	.LBE26:
  42:main_cm4.c    ****     Cy_GPIO_ClearInterrupt(P0_4_PORT, P0_4_NUM);
  43:main_cm4.c    ****     NVIC_ClearPendingIRQ(bouton_isr_cfg.intrSrc);
 117              		.loc 1 43 0
 118 0016 0A4B     		ldr	r3, .L11+8
 119 0018 B3F90030 		ldrsh	r3, [r3]
 120              	.LVL9:
 121              	.LBB28:
 122              	.LBB29:
 123              		.file 3 "Generated_Source\\PSoC6\\pdl\\cmsis/include/core_cm4.h"
   1:Generated_Source\PSoC6\pdl\cmsis/include/core_cm4.h **** /**************************************************************************//**
   2:Generated_Source\PSoC6\pdl\cmsis/include/core_cm4.h ****  * @file     core_cm4.h
   3:Generated_Source\PSoC6\pdl\cmsis/include/core_cm4.h ****  * @brief    CMSIS Cortex-M4 Core Peripheral Access Layer Header File
   4:Generated_Source\PSoC6\pdl\cmsis/include/core_cm4.h ****  * @version  V5.0.1
   5:Generated_Source\PSoC6\pdl\cmsis/include/core_cm4.h ****  * @date     30. January 2017
   6:Generated_Source\PSoC6\pdl\cmsis/include/core_cm4.h ****  ******************************************************************************/
   7:Generated_Source\PSoC6\pdl\cmsis/include/core_cm4.h **** /*
   8:Generated_Source\PSoC6\pdl\cmsis/include/core_cm4.h ****  * Copyright (c) 2009-2016 ARM Limited. All rights reserved.
   9:Generated_Source\PSoC6\pdl\cmsis/include/core_cm4.h ****  *
  10:Generated_Source\PSoC6\pdl\cmsis/include/core_cm4.h ****  * SPDX-License-Identifier: Apache-2.0
  11:Generated_Source\PSoC6\pdl\cmsis/include/core_cm4.h ****  *
  12:Generated_Source\PSoC6\pdl\cmsis/include/core_cm4.h ****  * Licensed under the Apache License, Version 2.0 (the License); you may
  13:Generated_Source\PSoC6\pdl\cmsis/include/core_cm4.h ****  * not use this file except in compliance with the License.
  14:Generated_Source\PSoC6\pdl\cmsis/include/core_cm4.h ****  * You may obtain a copy of the License at
  15:Generated_Source\PSoC6\pdl\cmsis/include/core_cm4.h ****  *
  16:Generated_Source\PSoC6\pdl\cmsis/include/core_cm4.h ****  * www.apache.org/licenses/LICENSE-2.0
  17:Generated_Source\PSoC6\pdl\cmsis/include/core_cm4.h ****  *
  18:Generated_Source\PSoC6\pdl\cmsis/include/core_cm4.h ****  * Unless required by applicable law or agreed to in writing, software
  19:Generated_Source\PSoC6\pdl\cmsis/include/core_cm4.h ****  * distributed under the License is distributed on an AS IS BASIS, WITHOUT
  20:Generated_Source\PSoC6\pdl\cmsis/include/core_cm4.h ****  * WARRANTIES OR CONDITIONS OF ANY KIND, either express or implied.
  21:Generated_Source\PSoC6\pdl\cmsis/include/core_cm4.h ****  * See the License for the specific language governing permissions and
  22:Generated_Source\PSoC6\pdl\cmsis/include/core_cm4.h ****  * limitations under the License.
ARM GAS  C:\Users\charl\AppData\Local\Temp\ccXtIxtO.s 			page 32


  23:Generated_Source\PSoC6\pdl\cmsis/include/core_cm4.h ****  */
  24:Generated_Source\PSoC6\pdl\cmsis/include/core_cm4.h **** 
  25:Generated_Source\PSoC6\pdl\cmsis/include/core_cm4.h **** #if   defined ( __ICCARM__ )
  26:Generated_Source\PSoC6\pdl\cmsis/include/core_cm4.h ****  #pragma system_include         /* treat file as system include file for MISRA check */
  27:Generated_Source\PSoC6\pdl\cmsis/include/core_cm4.h **** #elif defined (__ARMCC_VERSION) && (__ARMCC_VERSION >= 6010050)
  28:Generated_Source\PSoC6\pdl\cmsis/include/core_cm4.h ****   #pragma clang system_header   /* treat file as system include file */
  29:Generated_Source\PSoC6\pdl\cmsis/include/core_cm4.h **** #endif
  30:Generated_Source\PSoC6\pdl\cmsis/include/core_cm4.h **** 
  31:Generated_Source\PSoC6\pdl\cmsis/include/core_cm4.h **** #ifndef __CORE_CM4_H_GENERIC
  32:Generated_Source\PSoC6\pdl\cmsis/include/core_cm4.h **** #define __CORE_CM4_H_GENERIC
  33:Generated_Source\PSoC6\pdl\cmsis/include/core_cm4.h **** 
  34:Generated_Source\PSoC6\pdl\cmsis/include/core_cm4.h **** #include <stdint.h>
  35:Generated_Source\PSoC6\pdl\cmsis/include/core_cm4.h **** 
  36:Generated_Source\PSoC6\pdl\cmsis/include/core_cm4.h **** #ifdef __cplusplus
  37:Generated_Source\PSoC6\pdl\cmsis/include/core_cm4.h ****  extern "C" {
  38:Generated_Source\PSoC6\pdl\cmsis/include/core_cm4.h **** #endif
  39:Generated_Source\PSoC6\pdl\cmsis/include/core_cm4.h **** 
  40:Generated_Source\PSoC6\pdl\cmsis/include/core_cm4.h **** /**
  41:Generated_Source\PSoC6\pdl\cmsis/include/core_cm4.h ****   \page CMSIS_MISRA_Exceptions  MISRA-C:2004 Compliance Exceptions
  42:Generated_Source\PSoC6\pdl\cmsis/include/core_cm4.h ****   CMSIS violates the following MISRA-C:2004 rules:
  43:Generated_Source\PSoC6\pdl\cmsis/include/core_cm4.h **** 
  44:Generated_Source\PSoC6\pdl\cmsis/include/core_cm4.h ****    \li Required Rule 8.5, object/function definition in header file.<br>
  45:Generated_Source\PSoC6\pdl\cmsis/include/core_cm4.h ****      Function definitions in header files are used to allow 'inlining'.
  46:Generated_Source\PSoC6\pdl\cmsis/include/core_cm4.h **** 
  47:Generated_Source\PSoC6\pdl\cmsis/include/core_cm4.h ****    \li Required Rule 18.4, declaration of union type or object of union type: '{...}'.<br>
  48:Generated_Source\PSoC6\pdl\cmsis/include/core_cm4.h ****      Unions are used for effective representation of core registers.
  49:Generated_Source\PSoC6\pdl\cmsis/include/core_cm4.h **** 
  50:Generated_Source\PSoC6\pdl\cmsis/include/core_cm4.h ****    \li Advisory Rule 19.7, Function-like macro defined.<br>
  51:Generated_Source\PSoC6\pdl\cmsis/include/core_cm4.h ****      Function-like macros are used to allow more efficient code.
  52:Generated_Source\PSoC6\pdl\cmsis/include/core_cm4.h ****  */
  53:Generated_Source\PSoC6\pdl\cmsis/include/core_cm4.h **** 
  54:Generated_Source\PSoC6\pdl\cmsis/include/core_cm4.h **** 
  55:Generated_Source\PSoC6\pdl\cmsis/include/core_cm4.h **** /*******************************************************************************
  56:Generated_Source\PSoC6\pdl\cmsis/include/core_cm4.h ****  *                 CMSIS definitions
  57:Generated_Source\PSoC6\pdl\cmsis/include/core_cm4.h ****  ******************************************************************************/
  58:Generated_Source\PSoC6\pdl\cmsis/include/core_cm4.h **** /**
  59:Generated_Source\PSoC6\pdl\cmsis/include/core_cm4.h ****   \ingroup Cortex_M4
  60:Generated_Source\PSoC6\pdl\cmsis/include/core_cm4.h ****   @{
  61:Generated_Source\PSoC6\pdl\cmsis/include/core_cm4.h ****  */
  62:Generated_Source\PSoC6\pdl\cmsis/include/core_cm4.h **** 
  63:Generated_Source\PSoC6\pdl\cmsis/include/core_cm4.h **** /*  CMSIS CM4 definitions */
  64:Generated_Source\PSoC6\pdl\cmsis/include/core_cm4.h **** #define __CM4_CMSIS_VERSION_MAIN  ( 5U)                                  /*!< [31:16] CMSIS HAL mai
  65:Generated_Source\PSoC6\pdl\cmsis/include/core_cm4.h **** #define __CM4_CMSIS_VERSION_SUB   ( 0U)                                  /*!< [15:0]  CMSIS HAL sub
  66:Generated_Source\PSoC6\pdl\cmsis/include/core_cm4.h **** #define __CM4_CMSIS_VERSION       ((__CM4_CMSIS_VERSION_MAIN << 16U) | \
  67:Generated_Source\PSoC6\pdl\cmsis/include/core_cm4.h ****                                     __CM4_CMSIS_VERSION_SUB           )  /*!< CMSIS HAL version num
  68:Generated_Source\PSoC6\pdl\cmsis/include/core_cm4.h **** 
  69:Generated_Source\PSoC6\pdl\cmsis/include/core_cm4.h **** #define __CORTEX_M                (4U)                                   /*!< Cortex-M Core */
  70:Generated_Source\PSoC6\pdl\cmsis/include/core_cm4.h **** 
  71:Generated_Source\PSoC6\pdl\cmsis/include/core_cm4.h **** /** __FPU_USED indicates whether an FPU is used or not.
  72:Generated_Source\PSoC6\pdl\cmsis/include/core_cm4.h ****     For this, __FPU_PRESENT has to be checked prior to making use of FPU specific registers and fun
  73:Generated_Source\PSoC6\pdl\cmsis/include/core_cm4.h **** */
  74:Generated_Source\PSoC6\pdl\cmsis/include/core_cm4.h **** #if defined ( __CC_ARM )
  75:Generated_Source\PSoC6\pdl\cmsis/include/core_cm4.h ****   #if defined __TARGET_FPU_VFP
  76:Generated_Source\PSoC6\pdl\cmsis/include/core_cm4.h ****     #if defined (__FPU_PRESENT) && (__FPU_PRESENT == 1U)
  77:Generated_Source\PSoC6\pdl\cmsis/include/core_cm4.h ****       #define __FPU_USED       1U
  78:Generated_Source\PSoC6\pdl\cmsis/include/core_cm4.h ****     #else
  79:Generated_Source\PSoC6\pdl\cmsis/include/core_cm4.h ****       #error "Compiler generates FPU instructions for a device without an FPU (check __FPU_PRESENT)
ARM GAS  C:\Users\charl\AppData\Local\Temp\ccXtIxtO.s 			page 33


  80:Generated_Source\PSoC6\pdl\cmsis/include/core_cm4.h ****       #define __FPU_USED       0U
  81:Generated_Source\PSoC6\pdl\cmsis/include/core_cm4.h ****     #endif
  82:Generated_Source\PSoC6\pdl\cmsis/include/core_cm4.h ****   #else
  83:Generated_Source\PSoC6\pdl\cmsis/include/core_cm4.h ****     #define __FPU_USED         0U
  84:Generated_Source\PSoC6\pdl\cmsis/include/core_cm4.h ****   #endif
  85:Generated_Source\PSoC6\pdl\cmsis/include/core_cm4.h **** 
  86:Generated_Source\PSoC6\pdl\cmsis/include/core_cm4.h **** #elif defined (__ARMCC_VERSION) && (__ARMCC_VERSION >= 6010050)
  87:Generated_Source\PSoC6\pdl\cmsis/include/core_cm4.h ****   #if defined __ARM_PCS_VFP
  88:Generated_Source\PSoC6\pdl\cmsis/include/core_cm4.h ****     #if defined (__FPU_PRESENT) && (__FPU_PRESENT == 1U)
  89:Generated_Source\PSoC6\pdl\cmsis/include/core_cm4.h ****       #define __FPU_USED       1U
  90:Generated_Source\PSoC6\pdl\cmsis/include/core_cm4.h ****     #else
  91:Generated_Source\PSoC6\pdl\cmsis/include/core_cm4.h ****       #warning "Compiler generates FPU instructions for a device without an FPU (check __FPU_PRESEN
  92:Generated_Source\PSoC6\pdl\cmsis/include/core_cm4.h ****       #define __FPU_USED       0U
  93:Generated_Source\PSoC6\pdl\cmsis/include/core_cm4.h ****     #endif
  94:Generated_Source\PSoC6\pdl\cmsis/include/core_cm4.h ****   #else
  95:Generated_Source\PSoC6\pdl\cmsis/include/core_cm4.h ****     #define __FPU_USED         0U
  96:Generated_Source\PSoC6\pdl\cmsis/include/core_cm4.h ****   #endif
  97:Generated_Source\PSoC6\pdl\cmsis/include/core_cm4.h **** 
  98:Generated_Source\PSoC6\pdl\cmsis/include/core_cm4.h **** #elif defined ( __GNUC__ )
  99:Generated_Source\PSoC6\pdl\cmsis/include/core_cm4.h ****   #if defined (__VFP_FP__) && !defined(__SOFTFP__)
 100:Generated_Source\PSoC6\pdl\cmsis/include/core_cm4.h ****     #if defined (__FPU_PRESENT) && (__FPU_PRESENT == 1U)
 101:Generated_Source\PSoC6\pdl\cmsis/include/core_cm4.h ****       #define __FPU_USED       1U
 102:Generated_Source\PSoC6\pdl\cmsis/include/core_cm4.h ****     #else
 103:Generated_Source\PSoC6\pdl\cmsis/include/core_cm4.h ****       #error "Compiler generates FPU instructions for a device without an FPU (check __FPU_PRESENT)
 104:Generated_Source\PSoC6\pdl\cmsis/include/core_cm4.h ****       #define __FPU_USED       0U
 105:Generated_Source\PSoC6\pdl\cmsis/include/core_cm4.h ****     #endif
 106:Generated_Source\PSoC6\pdl\cmsis/include/core_cm4.h ****   #else
 107:Generated_Source\PSoC6\pdl\cmsis/include/core_cm4.h ****     #define __FPU_USED         0U
 108:Generated_Source\PSoC6\pdl\cmsis/include/core_cm4.h ****   #endif
 109:Generated_Source\PSoC6\pdl\cmsis/include/core_cm4.h **** 
 110:Generated_Source\PSoC6\pdl\cmsis/include/core_cm4.h **** #elif defined ( __ICCARM__ )
 111:Generated_Source\PSoC6\pdl\cmsis/include/core_cm4.h ****   #if defined __ARMVFP__
 112:Generated_Source\PSoC6\pdl\cmsis/include/core_cm4.h ****     #if defined (__FPU_PRESENT) && (__FPU_PRESENT == 1U)
 113:Generated_Source\PSoC6\pdl\cmsis/include/core_cm4.h ****       #define __FPU_USED       1U
 114:Generated_Source\PSoC6\pdl\cmsis/include/core_cm4.h ****     #else
 115:Generated_Source\PSoC6\pdl\cmsis/include/core_cm4.h ****       #error "Compiler generates FPU instructions for a device without an FPU (check __FPU_PRESENT)
 116:Generated_Source\PSoC6\pdl\cmsis/include/core_cm4.h ****       #define __FPU_USED       0U
 117:Generated_Source\PSoC6\pdl\cmsis/include/core_cm4.h ****     #endif
 118:Generated_Source\PSoC6\pdl\cmsis/include/core_cm4.h ****   #else
 119:Generated_Source\PSoC6\pdl\cmsis/include/core_cm4.h ****     #define __FPU_USED         0U
 120:Generated_Source\PSoC6\pdl\cmsis/include/core_cm4.h ****   #endif
 121:Generated_Source\PSoC6\pdl\cmsis/include/core_cm4.h **** 
 122:Generated_Source\PSoC6\pdl\cmsis/include/core_cm4.h **** #elif defined ( __TI_ARM__ )
 123:Generated_Source\PSoC6\pdl\cmsis/include/core_cm4.h ****   #if defined __TI_VFP_SUPPORT__
 124:Generated_Source\PSoC6\pdl\cmsis/include/core_cm4.h ****     #if defined (__FPU_PRESENT) && (__FPU_PRESENT == 1U)
 125:Generated_Source\PSoC6\pdl\cmsis/include/core_cm4.h ****       #define __FPU_USED       1U
 126:Generated_Source\PSoC6\pdl\cmsis/include/core_cm4.h ****     #else
 127:Generated_Source\PSoC6\pdl\cmsis/include/core_cm4.h ****       #error "Compiler generates FPU instructions for a device without an FPU (check __FPU_PRESENT)
 128:Generated_Source\PSoC6\pdl\cmsis/include/core_cm4.h ****       #define __FPU_USED       0U
 129:Generated_Source\PSoC6\pdl\cmsis/include/core_cm4.h ****     #endif
 130:Generated_Source\PSoC6\pdl\cmsis/include/core_cm4.h ****   #else
 131:Generated_Source\PSoC6\pdl\cmsis/include/core_cm4.h ****     #define __FPU_USED         0U
 132:Generated_Source\PSoC6\pdl\cmsis/include/core_cm4.h ****   #endif
 133:Generated_Source\PSoC6\pdl\cmsis/include/core_cm4.h **** 
 134:Generated_Source\PSoC6\pdl\cmsis/include/core_cm4.h **** #elif defined ( __TASKING__ )
 135:Generated_Source\PSoC6\pdl\cmsis/include/core_cm4.h ****   #if defined __FPU_VFP__
 136:Generated_Source\PSoC6\pdl\cmsis/include/core_cm4.h ****     #if defined (__FPU_PRESENT) && (__FPU_PRESENT == 1U)
ARM GAS  C:\Users\charl\AppData\Local\Temp\ccXtIxtO.s 			page 34


 137:Generated_Source\PSoC6\pdl\cmsis/include/core_cm4.h ****       #define __FPU_USED       1U
 138:Generated_Source\PSoC6\pdl\cmsis/include/core_cm4.h ****     #else
 139:Generated_Source\PSoC6\pdl\cmsis/include/core_cm4.h ****       #error "Compiler generates FPU instructions for a device without an FPU (check __FPU_PRESENT)
 140:Generated_Source\PSoC6\pdl\cmsis/include/core_cm4.h ****       #define __FPU_USED       0U
 141:Generated_Source\PSoC6\pdl\cmsis/include/core_cm4.h ****     #endif
 142:Generated_Source\PSoC6\pdl\cmsis/include/core_cm4.h ****   #else
 143:Generated_Source\PSoC6\pdl\cmsis/include/core_cm4.h ****     #define __FPU_USED         0U
 144:Generated_Source\PSoC6\pdl\cmsis/include/core_cm4.h ****   #endif
 145:Generated_Source\PSoC6\pdl\cmsis/include/core_cm4.h **** 
 146:Generated_Source\PSoC6\pdl\cmsis/include/core_cm4.h **** #elif defined ( __CSMC__ )
 147:Generated_Source\PSoC6\pdl\cmsis/include/core_cm4.h ****   #if ( __CSMC__ & 0x400U)
 148:Generated_Source\PSoC6\pdl\cmsis/include/core_cm4.h ****     #if defined (__FPU_PRESENT) && (__FPU_PRESENT == 1U)
 149:Generated_Source\PSoC6\pdl\cmsis/include/core_cm4.h ****       #define __FPU_USED       1U
 150:Generated_Source\PSoC6\pdl\cmsis/include/core_cm4.h ****     #else
 151:Generated_Source\PSoC6\pdl\cmsis/include/core_cm4.h ****       #error "Compiler generates FPU instructions for a device without an FPU (check __FPU_PRESENT)
 152:Generated_Source\PSoC6\pdl\cmsis/include/core_cm4.h ****       #define __FPU_USED       0U
 153:Generated_Source\PSoC6\pdl\cmsis/include/core_cm4.h ****     #endif
 154:Generated_Source\PSoC6\pdl\cmsis/include/core_cm4.h ****   #else
 155:Generated_Source\PSoC6\pdl\cmsis/include/core_cm4.h ****     #define __FPU_USED         0U
 156:Generated_Source\PSoC6\pdl\cmsis/include/core_cm4.h ****   #endif
 157:Generated_Source\PSoC6\pdl\cmsis/include/core_cm4.h **** 
 158:Generated_Source\PSoC6\pdl\cmsis/include/core_cm4.h **** #endif
 159:Generated_Source\PSoC6\pdl\cmsis/include/core_cm4.h **** 
 160:Generated_Source\PSoC6\pdl\cmsis/include/core_cm4.h **** #include "cmsis_compiler.h"               /* CMSIS compiler specific defines */
 161:Generated_Source\PSoC6\pdl\cmsis/include/core_cm4.h **** 
 162:Generated_Source\PSoC6\pdl\cmsis/include/core_cm4.h **** 
 163:Generated_Source\PSoC6\pdl\cmsis/include/core_cm4.h **** #ifdef __cplusplus
 164:Generated_Source\PSoC6\pdl\cmsis/include/core_cm4.h **** }
 165:Generated_Source\PSoC6\pdl\cmsis/include/core_cm4.h **** #endif
 166:Generated_Source\PSoC6\pdl\cmsis/include/core_cm4.h **** 
 167:Generated_Source\PSoC6\pdl\cmsis/include/core_cm4.h **** #endif /* __CORE_CM4_H_GENERIC */
 168:Generated_Source\PSoC6\pdl\cmsis/include/core_cm4.h **** 
 169:Generated_Source\PSoC6\pdl\cmsis/include/core_cm4.h **** #ifndef __CMSIS_GENERIC
 170:Generated_Source\PSoC6\pdl\cmsis/include/core_cm4.h **** 
 171:Generated_Source\PSoC6\pdl\cmsis/include/core_cm4.h **** #ifndef __CORE_CM4_H_DEPENDANT
 172:Generated_Source\PSoC6\pdl\cmsis/include/core_cm4.h **** #define __CORE_CM4_H_DEPENDANT
 173:Generated_Source\PSoC6\pdl\cmsis/include/core_cm4.h **** 
 174:Generated_Source\PSoC6\pdl\cmsis/include/core_cm4.h **** #ifdef __cplusplus
 175:Generated_Source\PSoC6\pdl\cmsis/include/core_cm4.h ****  extern "C" {
 176:Generated_Source\PSoC6\pdl\cmsis/include/core_cm4.h **** #endif
 177:Generated_Source\PSoC6\pdl\cmsis/include/core_cm4.h **** 
 178:Generated_Source\PSoC6\pdl\cmsis/include/core_cm4.h **** /* check device defines and use defaults */
 179:Generated_Source\PSoC6\pdl\cmsis/include/core_cm4.h **** #if defined __CHECK_DEVICE_DEFINES
 180:Generated_Source\PSoC6\pdl\cmsis/include/core_cm4.h ****   #ifndef __CM4_REV
 181:Generated_Source\PSoC6\pdl\cmsis/include/core_cm4.h ****     #define __CM4_REV               0x0000U
 182:Generated_Source\PSoC6\pdl\cmsis/include/core_cm4.h ****     #warning "__CM4_REV not defined in device header file; using default!"
 183:Generated_Source\PSoC6\pdl\cmsis/include/core_cm4.h ****   #endif
 184:Generated_Source\PSoC6\pdl\cmsis/include/core_cm4.h **** 
 185:Generated_Source\PSoC6\pdl\cmsis/include/core_cm4.h ****   #ifndef __FPU_PRESENT
 186:Generated_Source\PSoC6\pdl\cmsis/include/core_cm4.h ****     #define __FPU_PRESENT             0U
 187:Generated_Source\PSoC6\pdl\cmsis/include/core_cm4.h ****     #warning "__FPU_PRESENT not defined in device header file; using default!"
 188:Generated_Source\PSoC6\pdl\cmsis/include/core_cm4.h ****   #endif
 189:Generated_Source\PSoC6\pdl\cmsis/include/core_cm4.h **** 
 190:Generated_Source\PSoC6\pdl\cmsis/include/core_cm4.h ****   #ifndef __MPU_PRESENT
 191:Generated_Source\PSoC6\pdl\cmsis/include/core_cm4.h ****     #define __MPU_PRESENT             0U
 192:Generated_Source\PSoC6\pdl\cmsis/include/core_cm4.h ****     #warning "__MPU_PRESENT not defined in device header file; using default!"
 193:Generated_Source\PSoC6\pdl\cmsis/include/core_cm4.h ****   #endif
ARM GAS  C:\Users\charl\AppData\Local\Temp\ccXtIxtO.s 			page 35


 194:Generated_Source\PSoC6\pdl\cmsis/include/core_cm4.h **** 
 195:Generated_Source\PSoC6\pdl\cmsis/include/core_cm4.h ****   #ifndef __NVIC_PRIO_BITS
 196:Generated_Source\PSoC6\pdl\cmsis/include/core_cm4.h ****     #define __NVIC_PRIO_BITS          3U
 197:Generated_Source\PSoC6\pdl\cmsis/include/core_cm4.h ****     #warning "__NVIC_PRIO_BITS not defined in device header file; using default!"
 198:Generated_Source\PSoC6\pdl\cmsis/include/core_cm4.h ****   #endif
 199:Generated_Source\PSoC6\pdl\cmsis/include/core_cm4.h **** 
 200:Generated_Source\PSoC6\pdl\cmsis/include/core_cm4.h ****   #ifndef __Vendor_SysTickConfig
 201:Generated_Source\PSoC6\pdl\cmsis/include/core_cm4.h ****     #define __Vendor_SysTickConfig    0U
 202:Generated_Source\PSoC6\pdl\cmsis/include/core_cm4.h ****     #warning "__Vendor_SysTickConfig not defined in device header file; using default!"
 203:Generated_Source\PSoC6\pdl\cmsis/include/core_cm4.h ****   #endif
 204:Generated_Source\PSoC6\pdl\cmsis/include/core_cm4.h **** #endif
 205:Generated_Source\PSoC6\pdl\cmsis/include/core_cm4.h **** 
 206:Generated_Source\PSoC6\pdl\cmsis/include/core_cm4.h **** /* IO definitions (access restrictions to peripheral registers) */
 207:Generated_Source\PSoC6\pdl\cmsis/include/core_cm4.h **** /**
 208:Generated_Source\PSoC6\pdl\cmsis/include/core_cm4.h ****     \defgroup CMSIS_glob_defs CMSIS Global Defines
 209:Generated_Source\PSoC6\pdl\cmsis/include/core_cm4.h **** 
 210:Generated_Source\PSoC6\pdl\cmsis/include/core_cm4.h ****     <strong>IO Type Qualifiers</strong> are used
 211:Generated_Source\PSoC6\pdl\cmsis/include/core_cm4.h ****     \li to specify the access to peripheral variables.
 212:Generated_Source\PSoC6\pdl\cmsis/include/core_cm4.h ****     \li for automatic generation of peripheral register debug information.
 213:Generated_Source\PSoC6\pdl\cmsis/include/core_cm4.h **** */
 214:Generated_Source\PSoC6\pdl\cmsis/include/core_cm4.h **** #ifdef __cplusplus
 215:Generated_Source\PSoC6\pdl\cmsis/include/core_cm4.h ****   #define   __I     volatile             /*!< Defines 'read only' permissions */
 216:Generated_Source\PSoC6\pdl\cmsis/include/core_cm4.h **** #else
 217:Generated_Source\PSoC6\pdl\cmsis/include/core_cm4.h ****   #define   __I     volatile const       /*!< Defines 'read only' permissions */
 218:Generated_Source\PSoC6\pdl\cmsis/include/core_cm4.h **** #endif
 219:Generated_Source\PSoC6\pdl\cmsis/include/core_cm4.h **** #define     __O     volatile             /*!< Defines 'write only' permissions */
 220:Generated_Source\PSoC6\pdl\cmsis/include/core_cm4.h **** #define     __IO    volatile             /*!< Defines 'read / write' permissions */
 221:Generated_Source\PSoC6\pdl\cmsis/include/core_cm4.h **** 
 222:Generated_Source\PSoC6\pdl\cmsis/include/core_cm4.h **** /* following defines should be used for structure members */
 223:Generated_Source\PSoC6\pdl\cmsis/include/core_cm4.h **** #define     __IM     volatile const      /*! Defines 'read only' structure member permissions */
 224:Generated_Source\PSoC6\pdl\cmsis/include/core_cm4.h **** #define     __OM     volatile            /*! Defines 'write only' structure member permissions */
 225:Generated_Source\PSoC6\pdl\cmsis/include/core_cm4.h **** #define     __IOM    volatile            /*! Defines 'read / write' structure member permissions */
 226:Generated_Source\PSoC6\pdl\cmsis/include/core_cm4.h **** 
 227:Generated_Source\PSoC6\pdl\cmsis/include/core_cm4.h **** /*@} end of group Cortex_M4 */
 228:Generated_Source\PSoC6\pdl\cmsis/include/core_cm4.h **** 
 229:Generated_Source\PSoC6\pdl\cmsis/include/core_cm4.h **** 
 230:Generated_Source\PSoC6\pdl\cmsis/include/core_cm4.h **** 
 231:Generated_Source\PSoC6\pdl\cmsis/include/core_cm4.h **** /*******************************************************************************
 232:Generated_Source\PSoC6\pdl\cmsis/include/core_cm4.h ****  *                 Register Abstraction
 233:Generated_Source\PSoC6\pdl\cmsis/include/core_cm4.h ****   Core Register contain:
 234:Generated_Source\PSoC6\pdl\cmsis/include/core_cm4.h ****   - Core Register
 235:Generated_Source\PSoC6\pdl\cmsis/include/core_cm4.h ****   - Core NVIC Register
 236:Generated_Source\PSoC6\pdl\cmsis/include/core_cm4.h ****   - Core SCB Register
 237:Generated_Source\PSoC6\pdl\cmsis/include/core_cm4.h ****   - Core SysTick Register
 238:Generated_Source\PSoC6\pdl\cmsis/include/core_cm4.h ****   - Core Debug Register
 239:Generated_Source\PSoC6\pdl\cmsis/include/core_cm4.h ****   - Core MPU Register
 240:Generated_Source\PSoC6\pdl\cmsis/include/core_cm4.h ****   - Core FPU Register
 241:Generated_Source\PSoC6\pdl\cmsis/include/core_cm4.h ****  ******************************************************************************/
 242:Generated_Source\PSoC6\pdl\cmsis/include/core_cm4.h **** /**
 243:Generated_Source\PSoC6\pdl\cmsis/include/core_cm4.h ****   \defgroup CMSIS_core_register Defines and Type Definitions
 244:Generated_Source\PSoC6\pdl\cmsis/include/core_cm4.h ****   \brief Type definitions and defines for Cortex-M processor based devices.
 245:Generated_Source\PSoC6\pdl\cmsis/include/core_cm4.h **** */
 246:Generated_Source\PSoC6\pdl\cmsis/include/core_cm4.h **** 
 247:Generated_Source\PSoC6\pdl\cmsis/include/core_cm4.h **** /**
 248:Generated_Source\PSoC6\pdl\cmsis/include/core_cm4.h ****   \ingroup    CMSIS_core_register
 249:Generated_Source\PSoC6\pdl\cmsis/include/core_cm4.h ****   \defgroup   CMSIS_CORE  Status and Control Registers
 250:Generated_Source\PSoC6\pdl\cmsis/include/core_cm4.h ****   \brief      Core Register type definitions.
ARM GAS  C:\Users\charl\AppData\Local\Temp\ccXtIxtO.s 			page 36


 251:Generated_Source\PSoC6\pdl\cmsis/include/core_cm4.h ****   @{
 252:Generated_Source\PSoC6\pdl\cmsis/include/core_cm4.h ****  */
 253:Generated_Source\PSoC6\pdl\cmsis/include/core_cm4.h **** 
 254:Generated_Source\PSoC6\pdl\cmsis/include/core_cm4.h **** /**
 255:Generated_Source\PSoC6\pdl\cmsis/include/core_cm4.h ****   \brief  Union type to access the Application Program Status Register (APSR).
 256:Generated_Source\PSoC6\pdl\cmsis/include/core_cm4.h ****  */
 257:Generated_Source\PSoC6\pdl\cmsis/include/core_cm4.h **** typedef union
 258:Generated_Source\PSoC6\pdl\cmsis/include/core_cm4.h **** {
 259:Generated_Source\PSoC6\pdl\cmsis/include/core_cm4.h ****   struct
 260:Generated_Source\PSoC6\pdl\cmsis/include/core_cm4.h ****   {
 261:Generated_Source\PSoC6\pdl\cmsis/include/core_cm4.h ****     uint32_t _reserved0:16;              /*!< bit:  0..15  Reserved */
 262:Generated_Source\PSoC6\pdl\cmsis/include/core_cm4.h ****     uint32_t GE:4;                       /*!< bit: 16..19  Greater than or Equal flags */
 263:Generated_Source\PSoC6\pdl\cmsis/include/core_cm4.h ****     uint32_t _reserved1:7;               /*!< bit: 20..26  Reserved */
 264:Generated_Source\PSoC6\pdl\cmsis/include/core_cm4.h ****     uint32_t Q:1;                        /*!< bit:     27  Saturation condition flag */
 265:Generated_Source\PSoC6\pdl\cmsis/include/core_cm4.h ****     uint32_t V:1;                        /*!< bit:     28  Overflow condition code flag */
 266:Generated_Source\PSoC6\pdl\cmsis/include/core_cm4.h ****     uint32_t C:1;                        /*!< bit:     29  Carry condition code flag */
 267:Generated_Source\PSoC6\pdl\cmsis/include/core_cm4.h ****     uint32_t Z:1;                        /*!< bit:     30  Zero condition code flag */
 268:Generated_Source\PSoC6\pdl\cmsis/include/core_cm4.h ****     uint32_t N:1;                        /*!< bit:     31  Negative condition code flag */
 269:Generated_Source\PSoC6\pdl\cmsis/include/core_cm4.h ****   } b;                                   /*!< Structure used for bit  access */
 270:Generated_Source\PSoC6\pdl\cmsis/include/core_cm4.h ****   uint32_t w;                            /*!< Type      used for word access */
 271:Generated_Source\PSoC6\pdl\cmsis/include/core_cm4.h **** } APSR_Type;
 272:Generated_Source\PSoC6\pdl\cmsis/include/core_cm4.h **** 
 273:Generated_Source\PSoC6\pdl\cmsis/include/core_cm4.h **** /* APSR Register Definitions */
 274:Generated_Source\PSoC6\pdl\cmsis/include/core_cm4.h **** #define APSR_N_Pos                         31U                                            /*!< APSR
 275:Generated_Source\PSoC6\pdl\cmsis/include/core_cm4.h **** #define APSR_N_Msk                         (1UL << APSR_N_Pos)                            /*!< APSR
 276:Generated_Source\PSoC6\pdl\cmsis/include/core_cm4.h **** 
 277:Generated_Source\PSoC6\pdl\cmsis/include/core_cm4.h **** #define APSR_Z_Pos                         30U                                            /*!< APSR
 278:Generated_Source\PSoC6\pdl\cmsis/include/core_cm4.h **** #define APSR_Z_Msk                         (1UL << APSR_Z_Pos)                            /*!< APSR
 279:Generated_Source\PSoC6\pdl\cmsis/include/core_cm4.h **** 
 280:Generated_Source\PSoC6\pdl\cmsis/include/core_cm4.h **** #define APSR_C_Pos                         29U                                            /*!< APSR
 281:Generated_Source\PSoC6\pdl\cmsis/include/core_cm4.h **** #define APSR_C_Msk                         (1UL << APSR_C_Pos)                            /*!< APSR
 282:Generated_Source\PSoC6\pdl\cmsis/include/core_cm4.h **** 
 283:Generated_Source\PSoC6\pdl\cmsis/include/core_cm4.h **** #define APSR_V_Pos                         28U                                            /*!< APSR
 284:Generated_Source\PSoC6\pdl\cmsis/include/core_cm4.h **** #define APSR_V_Msk                         (1UL << APSR_V_Pos)                            /*!< APSR
 285:Generated_Source\PSoC6\pdl\cmsis/include/core_cm4.h **** 
 286:Generated_Source\PSoC6\pdl\cmsis/include/core_cm4.h **** #define APSR_Q_Pos                         27U                                            /*!< APSR
 287:Generated_Source\PSoC6\pdl\cmsis/include/core_cm4.h **** #define APSR_Q_Msk                         (1UL << APSR_Q_Pos)                            /*!< APSR
 288:Generated_Source\PSoC6\pdl\cmsis/include/core_cm4.h **** 
 289:Generated_Source\PSoC6\pdl\cmsis/include/core_cm4.h **** #define APSR_GE_Pos                        16U                                            /*!< APSR
 290:Generated_Source\PSoC6\pdl\cmsis/include/core_cm4.h **** #define APSR_GE_Msk                        (0xFUL << APSR_GE_Pos)                         /*!< APSR
 291:Generated_Source\PSoC6\pdl\cmsis/include/core_cm4.h **** 
 292:Generated_Source\PSoC6\pdl\cmsis/include/core_cm4.h **** 
 293:Generated_Source\PSoC6\pdl\cmsis/include/core_cm4.h **** /**
 294:Generated_Source\PSoC6\pdl\cmsis/include/core_cm4.h ****   \brief  Union type to access the Interrupt Program Status Register (IPSR).
 295:Generated_Source\PSoC6\pdl\cmsis/include/core_cm4.h ****  */
 296:Generated_Source\PSoC6\pdl\cmsis/include/core_cm4.h **** typedef union
 297:Generated_Source\PSoC6\pdl\cmsis/include/core_cm4.h **** {
 298:Generated_Source\PSoC6\pdl\cmsis/include/core_cm4.h ****   struct
 299:Generated_Source\PSoC6\pdl\cmsis/include/core_cm4.h ****   {
 300:Generated_Source\PSoC6\pdl\cmsis/include/core_cm4.h ****     uint32_t ISR:9;                      /*!< bit:  0.. 8  Exception number */
 301:Generated_Source\PSoC6\pdl\cmsis/include/core_cm4.h ****     uint32_t _reserved0:23;              /*!< bit:  9..31  Reserved */
 302:Generated_Source\PSoC6\pdl\cmsis/include/core_cm4.h ****   } b;                                   /*!< Structure used for bit  access */
 303:Generated_Source\PSoC6\pdl\cmsis/include/core_cm4.h ****   uint32_t w;                            /*!< Type      used for word access */
 304:Generated_Source\PSoC6\pdl\cmsis/include/core_cm4.h **** } IPSR_Type;
 305:Generated_Source\PSoC6\pdl\cmsis/include/core_cm4.h **** 
 306:Generated_Source\PSoC6\pdl\cmsis/include/core_cm4.h **** /* IPSR Register Definitions */
 307:Generated_Source\PSoC6\pdl\cmsis/include/core_cm4.h **** #define IPSR_ISR_Pos                        0U                                            /*!< IPSR
ARM GAS  C:\Users\charl\AppData\Local\Temp\ccXtIxtO.s 			page 37


 308:Generated_Source\PSoC6\pdl\cmsis/include/core_cm4.h **** #define IPSR_ISR_Msk                       (0x1FFUL /*<< IPSR_ISR_Pos*/)                  /*!< IPSR
 309:Generated_Source\PSoC6\pdl\cmsis/include/core_cm4.h **** 
 310:Generated_Source\PSoC6\pdl\cmsis/include/core_cm4.h **** 
 311:Generated_Source\PSoC6\pdl\cmsis/include/core_cm4.h **** /**
 312:Generated_Source\PSoC6\pdl\cmsis/include/core_cm4.h ****   \brief  Union type to access the Special-Purpose Program Status Registers (xPSR).
 313:Generated_Source\PSoC6\pdl\cmsis/include/core_cm4.h ****  */
 314:Generated_Source\PSoC6\pdl\cmsis/include/core_cm4.h **** typedef union
 315:Generated_Source\PSoC6\pdl\cmsis/include/core_cm4.h **** {
 316:Generated_Source\PSoC6\pdl\cmsis/include/core_cm4.h ****   struct
 317:Generated_Source\PSoC6\pdl\cmsis/include/core_cm4.h ****   {
 318:Generated_Source\PSoC6\pdl\cmsis/include/core_cm4.h ****     uint32_t ISR:9;                      /*!< bit:  0.. 8  Exception number */
 319:Generated_Source\PSoC6\pdl\cmsis/include/core_cm4.h ****     uint32_t _reserved0:1;               /*!< bit:      9  Reserved */
 320:Generated_Source\PSoC6\pdl\cmsis/include/core_cm4.h ****     uint32_t ICI_IT_1:6;                 /*!< bit: 10..15  ICI/IT part 1 */
 321:Generated_Source\PSoC6\pdl\cmsis/include/core_cm4.h ****     uint32_t GE:4;                       /*!< bit: 16..19  Greater than or Equal flags */
 322:Generated_Source\PSoC6\pdl\cmsis/include/core_cm4.h ****     uint32_t _reserved1:4;               /*!< bit: 20..23  Reserved */
 323:Generated_Source\PSoC6\pdl\cmsis/include/core_cm4.h ****     uint32_t T:1;                        /*!< bit:     24  Thumb bit */
 324:Generated_Source\PSoC6\pdl\cmsis/include/core_cm4.h ****     uint32_t ICI_IT_2:2;                 /*!< bit: 25..26  ICI/IT part 2 */
 325:Generated_Source\PSoC6\pdl\cmsis/include/core_cm4.h ****     uint32_t Q:1;                        /*!< bit:     27  Saturation condition flag */
 326:Generated_Source\PSoC6\pdl\cmsis/include/core_cm4.h ****     uint32_t V:1;                        /*!< bit:     28  Overflow condition code flag */
 327:Generated_Source\PSoC6\pdl\cmsis/include/core_cm4.h ****     uint32_t C:1;                        /*!< bit:     29  Carry condition code flag */
 328:Generated_Source\PSoC6\pdl\cmsis/include/core_cm4.h ****     uint32_t Z:1;                        /*!< bit:     30  Zero condition code flag */
 329:Generated_Source\PSoC6\pdl\cmsis/include/core_cm4.h ****     uint32_t N:1;                        /*!< bit:     31  Negative condition code flag */
 330:Generated_Source\PSoC6\pdl\cmsis/include/core_cm4.h ****   } b;                                   /*!< Structure used for bit  access */
 331:Generated_Source\PSoC6\pdl\cmsis/include/core_cm4.h ****   uint32_t w;                            /*!< Type      used for word access */
 332:Generated_Source\PSoC6\pdl\cmsis/include/core_cm4.h **** } xPSR_Type;
 333:Generated_Source\PSoC6\pdl\cmsis/include/core_cm4.h **** 
 334:Generated_Source\PSoC6\pdl\cmsis/include/core_cm4.h **** /* xPSR Register Definitions */
 335:Generated_Source\PSoC6\pdl\cmsis/include/core_cm4.h **** #define xPSR_N_Pos                         31U                                            /*!< xPSR
 336:Generated_Source\PSoC6\pdl\cmsis/include/core_cm4.h **** #define xPSR_N_Msk                         (1UL << xPSR_N_Pos)                            /*!< xPSR
 337:Generated_Source\PSoC6\pdl\cmsis/include/core_cm4.h **** 
 338:Generated_Source\PSoC6\pdl\cmsis/include/core_cm4.h **** #define xPSR_Z_Pos                         30U                                            /*!< xPSR
 339:Generated_Source\PSoC6\pdl\cmsis/include/core_cm4.h **** #define xPSR_Z_Msk                         (1UL << xPSR_Z_Pos)                            /*!< xPSR
 340:Generated_Source\PSoC6\pdl\cmsis/include/core_cm4.h **** 
 341:Generated_Source\PSoC6\pdl\cmsis/include/core_cm4.h **** #define xPSR_C_Pos                         29U                                            /*!< xPSR
 342:Generated_Source\PSoC6\pdl\cmsis/include/core_cm4.h **** #define xPSR_C_Msk                         (1UL << xPSR_C_Pos)                            /*!< xPSR
 343:Generated_Source\PSoC6\pdl\cmsis/include/core_cm4.h **** 
 344:Generated_Source\PSoC6\pdl\cmsis/include/core_cm4.h **** #define xPSR_V_Pos                         28U                                            /*!< xPSR
 345:Generated_Source\PSoC6\pdl\cmsis/include/core_cm4.h **** #define xPSR_V_Msk                         (1UL << xPSR_V_Pos)                            /*!< xPSR
 346:Generated_Source\PSoC6\pdl\cmsis/include/core_cm4.h **** 
 347:Generated_Source\PSoC6\pdl\cmsis/include/core_cm4.h **** #define xPSR_Q_Pos                         27U                                            /*!< xPSR
 348:Generated_Source\PSoC6\pdl\cmsis/include/core_cm4.h **** #define xPSR_Q_Msk                         (1UL << xPSR_Q_Pos)                            /*!< xPSR
 349:Generated_Source\PSoC6\pdl\cmsis/include/core_cm4.h **** 
 350:Generated_Source\PSoC6\pdl\cmsis/include/core_cm4.h **** #define xPSR_ICI_IT_2_Pos                  25U                                            /*!< xPSR
 351:Generated_Source\PSoC6\pdl\cmsis/include/core_cm4.h **** #define xPSR_ICI_IT_2_Msk                  (3UL << xPSR_ICI_IT_2_Pos)                     /*!< xPSR
 352:Generated_Source\PSoC6\pdl\cmsis/include/core_cm4.h **** 
 353:Generated_Source\PSoC6\pdl\cmsis/include/core_cm4.h **** #define xPSR_T_Pos                         24U                                            /*!< xPSR
 354:Generated_Source\PSoC6\pdl\cmsis/include/core_cm4.h **** #define xPSR_T_Msk                         (1UL << xPSR_T_Pos)                            /*!< xPSR
 355:Generated_Source\PSoC6\pdl\cmsis/include/core_cm4.h **** 
 356:Generated_Source\PSoC6\pdl\cmsis/include/core_cm4.h **** #define xPSR_GE_Pos                        16U                                            /*!< xPSR
 357:Generated_Source\PSoC6\pdl\cmsis/include/core_cm4.h **** #define xPSR_GE_Msk                        (0xFUL << xPSR_GE_Pos)                         /*!< xPSR
 358:Generated_Source\PSoC6\pdl\cmsis/include/core_cm4.h **** 
 359:Generated_Source\PSoC6\pdl\cmsis/include/core_cm4.h **** #define xPSR_ICI_IT_1_Pos                  10U                                            /*!< xPSR
 360:Generated_Source\PSoC6\pdl\cmsis/include/core_cm4.h **** #define xPSR_ICI_IT_1_Msk                  (0x3FUL << xPSR_ICI_IT_1_Pos)                  /*!< xPSR
 361:Generated_Source\PSoC6\pdl\cmsis/include/core_cm4.h **** 
 362:Generated_Source\PSoC6\pdl\cmsis/include/core_cm4.h **** #define xPSR_ISR_Pos                        0U                                            /*!< xPSR
 363:Generated_Source\PSoC6\pdl\cmsis/include/core_cm4.h **** #define xPSR_ISR_Msk                       (0x1FFUL /*<< xPSR_ISR_Pos*/)                  /*!< xPSR
 364:Generated_Source\PSoC6\pdl\cmsis/include/core_cm4.h **** 
ARM GAS  C:\Users\charl\AppData\Local\Temp\ccXtIxtO.s 			page 38


 365:Generated_Source\PSoC6\pdl\cmsis/include/core_cm4.h **** 
 366:Generated_Source\PSoC6\pdl\cmsis/include/core_cm4.h **** /**
 367:Generated_Source\PSoC6\pdl\cmsis/include/core_cm4.h ****   \brief  Union type to access the Control Registers (CONTROL).
 368:Generated_Source\PSoC6\pdl\cmsis/include/core_cm4.h ****  */
 369:Generated_Source\PSoC6\pdl\cmsis/include/core_cm4.h **** typedef union
 370:Generated_Source\PSoC6\pdl\cmsis/include/core_cm4.h **** {
 371:Generated_Source\PSoC6\pdl\cmsis/include/core_cm4.h ****   struct
 372:Generated_Source\PSoC6\pdl\cmsis/include/core_cm4.h ****   {
 373:Generated_Source\PSoC6\pdl\cmsis/include/core_cm4.h ****     uint32_t nPRIV:1;                    /*!< bit:      0  Execution privilege in Thread mode */
 374:Generated_Source\PSoC6\pdl\cmsis/include/core_cm4.h ****     uint32_t SPSEL:1;                    /*!< bit:      1  Stack to be used */
 375:Generated_Source\PSoC6\pdl\cmsis/include/core_cm4.h ****     uint32_t FPCA:1;                     /*!< bit:      2  FP extension active flag */
 376:Generated_Source\PSoC6\pdl\cmsis/include/core_cm4.h ****     uint32_t _reserved0:29;              /*!< bit:  3..31  Reserved */
 377:Generated_Source\PSoC6\pdl\cmsis/include/core_cm4.h ****   } b;                                   /*!< Structure used for bit  access */
 378:Generated_Source\PSoC6\pdl\cmsis/include/core_cm4.h ****   uint32_t w;                            /*!< Type      used for word access */
 379:Generated_Source\PSoC6\pdl\cmsis/include/core_cm4.h **** } CONTROL_Type;
 380:Generated_Source\PSoC6\pdl\cmsis/include/core_cm4.h **** 
 381:Generated_Source\PSoC6\pdl\cmsis/include/core_cm4.h **** /* CONTROL Register Definitions */
 382:Generated_Source\PSoC6\pdl\cmsis/include/core_cm4.h **** #define CONTROL_FPCA_Pos                    2U                                            /*!< CONT
 383:Generated_Source\PSoC6\pdl\cmsis/include/core_cm4.h **** #define CONTROL_FPCA_Msk                   (1UL << CONTROL_FPCA_Pos)                      /*!< CONT
 384:Generated_Source\PSoC6\pdl\cmsis/include/core_cm4.h **** 
 385:Generated_Source\PSoC6\pdl\cmsis/include/core_cm4.h **** #define CONTROL_SPSEL_Pos                   1U                                            /*!< CONT
 386:Generated_Source\PSoC6\pdl\cmsis/include/core_cm4.h **** #define CONTROL_SPSEL_Msk                  (1UL << CONTROL_SPSEL_Pos)                     /*!< CONT
 387:Generated_Source\PSoC6\pdl\cmsis/include/core_cm4.h **** 
 388:Generated_Source\PSoC6\pdl\cmsis/include/core_cm4.h **** #define CONTROL_nPRIV_Pos                   0U                                            /*!< CONT
 389:Generated_Source\PSoC6\pdl\cmsis/include/core_cm4.h **** #define CONTROL_nPRIV_Msk                  (1UL /*<< CONTROL_nPRIV_Pos*/)                 /*!< CONT
 390:Generated_Source\PSoC6\pdl\cmsis/include/core_cm4.h **** 
 391:Generated_Source\PSoC6\pdl\cmsis/include/core_cm4.h **** /*@} end of group CMSIS_CORE */
 392:Generated_Source\PSoC6\pdl\cmsis/include/core_cm4.h **** 
 393:Generated_Source\PSoC6\pdl\cmsis/include/core_cm4.h **** 
 394:Generated_Source\PSoC6\pdl\cmsis/include/core_cm4.h **** /**
 395:Generated_Source\PSoC6\pdl\cmsis/include/core_cm4.h ****   \ingroup    CMSIS_core_register
 396:Generated_Source\PSoC6\pdl\cmsis/include/core_cm4.h ****   \defgroup   CMSIS_NVIC  Nested Vectored Interrupt Controller (NVIC)
 397:Generated_Source\PSoC6\pdl\cmsis/include/core_cm4.h ****   \brief      Type definitions for the NVIC Registers
 398:Generated_Source\PSoC6\pdl\cmsis/include/core_cm4.h ****   @{
 399:Generated_Source\PSoC6\pdl\cmsis/include/core_cm4.h ****  */
 400:Generated_Source\PSoC6\pdl\cmsis/include/core_cm4.h **** 
 401:Generated_Source\PSoC6\pdl\cmsis/include/core_cm4.h **** /**
 402:Generated_Source\PSoC6\pdl\cmsis/include/core_cm4.h ****   \brief  Structure type to access the Nested Vectored Interrupt Controller (NVIC).
 403:Generated_Source\PSoC6\pdl\cmsis/include/core_cm4.h ****  */
 404:Generated_Source\PSoC6\pdl\cmsis/include/core_cm4.h **** typedef struct
 405:Generated_Source\PSoC6\pdl\cmsis/include/core_cm4.h **** {
 406:Generated_Source\PSoC6\pdl\cmsis/include/core_cm4.h ****   __IOM uint32_t ISER[8U];               /*!< Offset: 0x000 (R/W)  Interrupt Set Enable Register */
 407:Generated_Source\PSoC6\pdl\cmsis/include/core_cm4.h ****         uint32_t RESERVED0[24U];
 408:Generated_Source\PSoC6\pdl\cmsis/include/core_cm4.h ****   __IOM uint32_t ICER[8U];               /*!< Offset: 0x080 (R/W)  Interrupt Clear Enable Register 
 409:Generated_Source\PSoC6\pdl\cmsis/include/core_cm4.h ****         uint32_t RSERVED1[24U];
 410:Generated_Source\PSoC6\pdl\cmsis/include/core_cm4.h ****   __IOM uint32_t ISPR[8U];               /*!< Offset: 0x100 (R/W)  Interrupt Set Pending Register *
 411:Generated_Source\PSoC6\pdl\cmsis/include/core_cm4.h ****         uint32_t RESERVED2[24U];
 412:Generated_Source\PSoC6\pdl\cmsis/include/core_cm4.h ****   __IOM uint32_t ICPR[8U];               /*!< Offset: 0x180 (R/W)  Interrupt Clear Pending Register
 413:Generated_Source\PSoC6\pdl\cmsis/include/core_cm4.h ****         uint32_t RESERVED3[24U];
 414:Generated_Source\PSoC6\pdl\cmsis/include/core_cm4.h ****   __IOM uint32_t IABR[8U];               /*!< Offset: 0x200 (R/W)  Interrupt Active bit Register */
 415:Generated_Source\PSoC6\pdl\cmsis/include/core_cm4.h ****         uint32_t RESERVED4[56U];
 416:Generated_Source\PSoC6\pdl\cmsis/include/core_cm4.h ****   __IOM uint8_t  IP[240U];               /*!< Offset: 0x300 (R/W)  Interrupt Priority Register (8Bi
 417:Generated_Source\PSoC6\pdl\cmsis/include/core_cm4.h ****         uint32_t RESERVED5[644U];
 418:Generated_Source\PSoC6\pdl\cmsis/include/core_cm4.h ****   __OM  uint32_t STIR;                   /*!< Offset: 0xE00 ( /W)  Software Trigger Interrupt Regis
 419:Generated_Source\PSoC6\pdl\cmsis/include/core_cm4.h **** }  NVIC_Type;
 420:Generated_Source\PSoC6\pdl\cmsis/include/core_cm4.h **** 
 421:Generated_Source\PSoC6\pdl\cmsis/include/core_cm4.h **** /* Software Triggered Interrupt Register Definitions */
ARM GAS  C:\Users\charl\AppData\Local\Temp\ccXtIxtO.s 			page 39


 422:Generated_Source\PSoC6\pdl\cmsis/include/core_cm4.h **** #define NVIC_STIR_INTID_Pos                 0U                                         /*!< STIR: I
 423:Generated_Source\PSoC6\pdl\cmsis/include/core_cm4.h **** #define NVIC_STIR_INTID_Msk                (0x1FFUL /*<< NVIC_STIR_INTID_Pos*/)        /*!< STIR: I
 424:Generated_Source\PSoC6\pdl\cmsis/include/core_cm4.h **** 
 425:Generated_Source\PSoC6\pdl\cmsis/include/core_cm4.h **** /*@} end of group CMSIS_NVIC */
 426:Generated_Source\PSoC6\pdl\cmsis/include/core_cm4.h **** 
 427:Generated_Source\PSoC6\pdl\cmsis/include/core_cm4.h **** 
 428:Generated_Source\PSoC6\pdl\cmsis/include/core_cm4.h **** /**
 429:Generated_Source\PSoC6\pdl\cmsis/include/core_cm4.h ****   \ingroup  CMSIS_core_register
 430:Generated_Source\PSoC6\pdl\cmsis/include/core_cm4.h ****   \defgroup CMSIS_SCB     System Control Block (SCB)
 431:Generated_Source\PSoC6\pdl\cmsis/include/core_cm4.h ****   \brief    Type definitions for the System Control Block Registers
 432:Generated_Source\PSoC6\pdl\cmsis/include/core_cm4.h ****   @{
 433:Generated_Source\PSoC6\pdl\cmsis/include/core_cm4.h ****  */
 434:Generated_Source\PSoC6\pdl\cmsis/include/core_cm4.h **** 
 435:Generated_Source\PSoC6\pdl\cmsis/include/core_cm4.h **** /**
 436:Generated_Source\PSoC6\pdl\cmsis/include/core_cm4.h ****   \brief  Structure type to access the System Control Block (SCB).
 437:Generated_Source\PSoC6\pdl\cmsis/include/core_cm4.h ****  */
 438:Generated_Source\PSoC6\pdl\cmsis/include/core_cm4.h **** typedef struct
 439:Generated_Source\PSoC6\pdl\cmsis/include/core_cm4.h **** {
 440:Generated_Source\PSoC6\pdl\cmsis/include/core_cm4.h ****   __IM  uint32_t CPUID;                  /*!< Offset: 0x000 (R/ )  CPUID Base Register */
 441:Generated_Source\PSoC6\pdl\cmsis/include/core_cm4.h ****   __IOM uint32_t ICSR;                   /*!< Offset: 0x004 (R/W)  Interrupt Control and State Regi
 442:Generated_Source\PSoC6\pdl\cmsis/include/core_cm4.h ****   __IOM uint32_t VTOR;                   /*!< Offset: 0x008 (R/W)  Vector Table Offset Register */
 443:Generated_Source\PSoC6\pdl\cmsis/include/core_cm4.h ****   __IOM uint32_t AIRCR;                  /*!< Offset: 0x00C (R/W)  Application Interrupt and Reset 
 444:Generated_Source\PSoC6\pdl\cmsis/include/core_cm4.h ****   __IOM uint32_t SCR;                    /*!< Offset: 0x010 (R/W)  System Control Register */
 445:Generated_Source\PSoC6\pdl\cmsis/include/core_cm4.h ****   __IOM uint32_t CCR;                    /*!< Offset: 0x014 (R/W)  Configuration Control Register *
 446:Generated_Source\PSoC6\pdl\cmsis/include/core_cm4.h ****   __IOM uint8_t  SHP[12U];               /*!< Offset: 0x018 (R/W)  System Handlers Priority Registe
 447:Generated_Source\PSoC6\pdl\cmsis/include/core_cm4.h ****   __IOM uint32_t SHCSR;                  /*!< Offset: 0x024 (R/W)  System Handler Control and State
 448:Generated_Source\PSoC6\pdl\cmsis/include/core_cm4.h ****   __IOM uint32_t CFSR;                   /*!< Offset: 0x028 (R/W)  Configurable Fault Status Regist
 449:Generated_Source\PSoC6\pdl\cmsis/include/core_cm4.h ****   __IOM uint32_t HFSR;                   /*!< Offset: 0x02C (R/W)  HardFault Status Register */
 450:Generated_Source\PSoC6\pdl\cmsis/include/core_cm4.h ****   __IOM uint32_t DFSR;                   /*!< Offset: 0x030 (R/W)  Debug Fault Status Register */
 451:Generated_Source\PSoC6\pdl\cmsis/include/core_cm4.h ****   __IOM uint32_t MMFAR;                  /*!< Offset: 0x034 (R/W)  MemManage Fault Address Register
 452:Generated_Source\PSoC6\pdl\cmsis/include/core_cm4.h ****   __IOM uint32_t BFAR;                   /*!< Offset: 0x038 (R/W)  BusFault Address Register */
 453:Generated_Source\PSoC6\pdl\cmsis/include/core_cm4.h ****   __IOM uint32_t AFSR;                   /*!< Offset: 0x03C (R/W)  Auxiliary Fault Status Register 
 454:Generated_Source\PSoC6\pdl\cmsis/include/core_cm4.h ****   __IM  uint32_t PFR[2U];                /*!< Offset: 0x040 (R/ )  Processor Feature Register */
 455:Generated_Source\PSoC6\pdl\cmsis/include/core_cm4.h ****   __IM  uint32_t DFR;                    /*!< Offset: 0x048 (R/ )  Debug Feature Register */
 456:Generated_Source\PSoC6\pdl\cmsis/include/core_cm4.h ****   __IM  uint32_t ADR;                    /*!< Offset: 0x04C (R/ )  Auxiliary Feature Register */
 457:Generated_Source\PSoC6\pdl\cmsis/include/core_cm4.h ****   __IM  uint32_t MMFR[4U];               /*!< Offset: 0x050 (R/ )  Memory Model Feature Register */
 458:Generated_Source\PSoC6\pdl\cmsis/include/core_cm4.h ****   __IM  uint32_t ISAR[5U];               /*!< Offset: 0x060 (R/ )  Instruction Set Attributes Regis
 459:Generated_Source\PSoC6\pdl\cmsis/include/core_cm4.h ****         uint32_t RESERVED0[5U];
 460:Generated_Source\PSoC6\pdl\cmsis/include/core_cm4.h ****   __IOM uint32_t CPACR;                  /*!< Offset: 0x088 (R/W)  Coprocessor Access Control Regis
 461:Generated_Source\PSoC6\pdl\cmsis/include/core_cm4.h **** } SCB_Type;
 462:Generated_Source\PSoC6\pdl\cmsis/include/core_cm4.h **** 
 463:Generated_Source\PSoC6\pdl\cmsis/include/core_cm4.h **** /* SCB CPUID Register Definitions */
 464:Generated_Source\PSoC6\pdl\cmsis/include/core_cm4.h **** #define SCB_CPUID_IMPLEMENTER_Pos          24U                                            /*!< SCB 
 465:Generated_Source\PSoC6\pdl\cmsis/include/core_cm4.h **** #define SCB_CPUID_IMPLEMENTER_Msk          (0xFFUL << SCB_CPUID_IMPLEMENTER_Pos)          /*!< SCB 
 466:Generated_Source\PSoC6\pdl\cmsis/include/core_cm4.h **** 
 467:Generated_Source\PSoC6\pdl\cmsis/include/core_cm4.h **** #define SCB_CPUID_VARIANT_Pos              20U                                            /*!< SCB 
 468:Generated_Source\PSoC6\pdl\cmsis/include/core_cm4.h **** #define SCB_CPUID_VARIANT_Msk              (0xFUL << SCB_CPUID_VARIANT_Pos)               /*!< SCB 
 469:Generated_Source\PSoC6\pdl\cmsis/include/core_cm4.h **** 
 470:Generated_Source\PSoC6\pdl\cmsis/include/core_cm4.h **** #define SCB_CPUID_ARCHITECTURE_Pos         16U                                            /*!< SCB 
 471:Generated_Source\PSoC6\pdl\cmsis/include/core_cm4.h **** #define SCB_CPUID_ARCHITECTURE_Msk         (0xFUL << SCB_CPUID_ARCHITECTURE_Pos)          /*!< SCB 
 472:Generated_Source\PSoC6\pdl\cmsis/include/core_cm4.h **** 
 473:Generated_Source\PSoC6\pdl\cmsis/include/core_cm4.h **** #define SCB_CPUID_PARTNO_Pos                4U                                            /*!< SCB 
 474:Generated_Source\PSoC6\pdl\cmsis/include/core_cm4.h **** #define SCB_CPUID_PARTNO_Msk               (0xFFFUL << SCB_CPUID_PARTNO_Pos)              /*!< SCB 
 475:Generated_Source\PSoC6\pdl\cmsis/include/core_cm4.h **** 
 476:Generated_Source\PSoC6\pdl\cmsis/include/core_cm4.h **** #define SCB_CPUID_REVISION_Pos              0U                                            /*!< SCB 
 477:Generated_Source\PSoC6\pdl\cmsis/include/core_cm4.h **** #define SCB_CPUID_REVISION_Msk             (0xFUL /*<< SCB_CPUID_REVISION_Pos*/)          /*!< SCB 
 478:Generated_Source\PSoC6\pdl\cmsis/include/core_cm4.h **** 
ARM GAS  C:\Users\charl\AppData\Local\Temp\ccXtIxtO.s 			page 40


 479:Generated_Source\PSoC6\pdl\cmsis/include/core_cm4.h **** /* SCB Interrupt Control State Register Definitions */
 480:Generated_Source\PSoC6\pdl\cmsis/include/core_cm4.h **** #define SCB_ICSR_NMIPENDSET_Pos            31U                                            /*!< SCB 
 481:Generated_Source\PSoC6\pdl\cmsis/include/core_cm4.h **** #define SCB_ICSR_NMIPENDSET_Msk            (1UL << SCB_ICSR_NMIPENDSET_Pos)               /*!< SCB 
 482:Generated_Source\PSoC6\pdl\cmsis/include/core_cm4.h **** 
 483:Generated_Source\PSoC6\pdl\cmsis/include/core_cm4.h **** #define SCB_ICSR_PENDSVSET_Pos             28U                                            /*!< SCB 
 484:Generated_Source\PSoC6\pdl\cmsis/include/core_cm4.h **** #define SCB_ICSR_PENDSVSET_Msk             (1UL << SCB_ICSR_PENDSVSET_Pos)                /*!< SCB 
 485:Generated_Source\PSoC6\pdl\cmsis/include/core_cm4.h **** 
 486:Generated_Source\PSoC6\pdl\cmsis/include/core_cm4.h **** #define SCB_ICSR_PENDSVCLR_Pos             27U                                            /*!< SCB 
 487:Generated_Source\PSoC6\pdl\cmsis/include/core_cm4.h **** #define SCB_ICSR_PENDSVCLR_Msk             (1UL << SCB_ICSR_PENDSVCLR_Pos)                /*!< SCB 
 488:Generated_Source\PSoC6\pdl\cmsis/include/core_cm4.h **** 
 489:Generated_Source\PSoC6\pdl\cmsis/include/core_cm4.h **** #define SCB_ICSR_PENDSTSET_Pos             26U                                            /*!< SCB 
 490:Generated_Source\PSoC6\pdl\cmsis/include/core_cm4.h **** #define SCB_ICSR_PENDSTSET_Msk             (1UL << SCB_ICSR_PENDSTSET_Pos)                /*!< SCB 
 491:Generated_Source\PSoC6\pdl\cmsis/include/core_cm4.h **** 
 492:Generated_Source\PSoC6\pdl\cmsis/include/core_cm4.h **** #define SCB_ICSR_PENDSTCLR_Pos             25U                                            /*!< SCB 
 493:Generated_Source\PSoC6\pdl\cmsis/include/core_cm4.h **** #define SCB_ICSR_PENDSTCLR_Msk             (1UL << SCB_ICSR_PENDSTCLR_Pos)                /*!< SCB 
 494:Generated_Source\PSoC6\pdl\cmsis/include/core_cm4.h **** 
 495:Generated_Source\PSoC6\pdl\cmsis/include/core_cm4.h **** #define SCB_ICSR_ISRPREEMPT_Pos            23U                                            /*!< SCB 
 496:Generated_Source\PSoC6\pdl\cmsis/include/core_cm4.h **** #define SCB_ICSR_ISRPREEMPT_Msk            (1UL << SCB_ICSR_ISRPREEMPT_Pos)               /*!< SCB 
 497:Generated_Source\PSoC6\pdl\cmsis/include/core_cm4.h **** 
 498:Generated_Source\PSoC6\pdl\cmsis/include/core_cm4.h **** #define SCB_ICSR_ISRPENDING_Pos            22U                                            /*!< SCB 
 499:Generated_Source\PSoC6\pdl\cmsis/include/core_cm4.h **** #define SCB_ICSR_ISRPENDING_Msk            (1UL << SCB_ICSR_ISRPENDING_Pos)               /*!< SCB 
 500:Generated_Source\PSoC6\pdl\cmsis/include/core_cm4.h **** 
 501:Generated_Source\PSoC6\pdl\cmsis/include/core_cm4.h **** #define SCB_ICSR_VECTPENDING_Pos           12U                                            /*!< SCB 
 502:Generated_Source\PSoC6\pdl\cmsis/include/core_cm4.h **** #define SCB_ICSR_VECTPENDING_Msk           (0x1FFUL << SCB_ICSR_VECTPENDING_Pos)          /*!< SCB 
 503:Generated_Source\PSoC6\pdl\cmsis/include/core_cm4.h **** 
 504:Generated_Source\PSoC6\pdl\cmsis/include/core_cm4.h **** #define SCB_ICSR_RETTOBASE_Pos             11U                                            /*!< SCB 
 505:Generated_Source\PSoC6\pdl\cmsis/include/core_cm4.h **** #define SCB_ICSR_RETTOBASE_Msk             (1UL << SCB_ICSR_RETTOBASE_Pos)                /*!< SCB 
 506:Generated_Source\PSoC6\pdl\cmsis/include/core_cm4.h **** 
 507:Generated_Source\PSoC6\pdl\cmsis/include/core_cm4.h **** #define SCB_ICSR_VECTACTIVE_Pos             0U                                            /*!< SCB 
 508:Generated_Source\PSoC6\pdl\cmsis/include/core_cm4.h **** #define SCB_ICSR_VECTACTIVE_Msk            (0x1FFUL /*<< SCB_ICSR_VECTACTIVE_Pos*/)       /*!< SCB 
 509:Generated_Source\PSoC6\pdl\cmsis/include/core_cm4.h **** 
 510:Generated_Source\PSoC6\pdl\cmsis/include/core_cm4.h **** /* SCB Vector Table Offset Register Definitions */
 511:Generated_Source\PSoC6\pdl\cmsis/include/core_cm4.h **** #define SCB_VTOR_TBLOFF_Pos                 7U                                            /*!< SCB 
 512:Generated_Source\PSoC6\pdl\cmsis/include/core_cm4.h **** #define SCB_VTOR_TBLOFF_Msk                (0x1FFFFFFUL << SCB_VTOR_TBLOFF_Pos)           /*!< SCB 
 513:Generated_Source\PSoC6\pdl\cmsis/include/core_cm4.h **** 
 514:Generated_Source\PSoC6\pdl\cmsis/include/core_cm4.h **** /* SCB Application Interrupt and Reset Control Register Definitions */
 515:Generated_Source\PSoC6\pdl\cmsis/include/core_cm4.h **** #define SCB_AIRCR_VECTKEY_Pos              16U                                            /*!< SCB 
 516:Generated_Source\PSoC6\pdl\cmsis/include/core_cm4.h **** #define SCB_AIRCR_VECTKEY_Msk              (0xFFFFUL << SCB_AIRCR_VECTKEY_Pos)            /*!< SCB 
 517:Generated_Source\PSoC6\pdl\cmsis/include/core_cm4.h **** 
 518:Generated_Source\PSoC6\pdl\cmsis/include/core_cm4.h **** #define SCB_AIRCR_VECTKEYSTAT_Pos          16U                                            /*!< SCB 
 519:Generated_Source\PSoC6\pdl\cmsis/include/core_cm4.h **** #define SCB_AIRCR_VECTKEYSTAT_Msk          (0xFFFFUL << SCB_AIRCR_VECTKEYSTAT_Pos)        /*!< SCB 
 520:Generated_Source\PSoC6\pdl\cmsis/include/core_cm4.h **** 
 521:Generated_Source\PSoC6\pdl\cmsis/include/core_cm4.h **** #define SCB_AIRCR_ENDIANESS_Pos            15U                                            /*!< SCB 
 522:Generated_Source\PSoC6\pdl\cmsis/include/core_cm4.h **** #define SCB_AIRCR_ENDIANESS_Msk            (1UL << SCB_AIRCR_ENDIANESS_Pos)               /*!< SCB 
 523:Generated_Source\PSoC6\pdl\cmsis/include/core_cm4.h **** 
 524:Generated_Source\PSoC6\pdl\cmsis/include/core_cm4.h **** #define SCB_AIRCR_PRIGROUP_Pos              8U                                            /*!< SCB 
 525:Generated_Source\PSoC6\pdl\cmsis/include/core_cm4.h **** #define SCB_AIRCR_PRIGROUP_Msk             (7UL << SCB_AIRCR_PRIGROUP_Pos)                /*!< SCB 
 526:Generated_Source\PSoC6\pdl\cmsis/include/core_cm4.h **** 
 527:Generated_Source\PSoC6\pdl\cmsis/include/core_cm4.h **** #define SCB_AIRCR_SYSRESETREQ_Pos           2U                                            /*!< SCB 
 528:Generated_Source\PSoC6\pdl\cmsis/include/core_cm4.h **** #define SCB_AIRCR_SYSRESETREQ_Msk          (1UL << SCB_AIRCR_SYSRESETREQ_Pos)             /*!< SCB 
 529:Generated_Source\PSoC6\pdl\cmsis/include/core_cm4.h **** 
 530:Generated_Source\PSoC6\pdl\cmsis/include/core_cm4.h **** #define SCB_AIRCR_VECTCLRACTIVE_Pos         1U                                            /*!< SCB 
 531:Generated_Source\PSoC6\pdl\cmsis/include/core_cm4.h **** #define SCB_AIRCR_VECTCLRACTIVE_Msk        (1UL << SCB_AIRCR_VECTCLRACTIVE_Pos)           /*!< SCB 
 532:Generated_Source\PSoC6\pdl\cmsis/include/core_cm4.h **** 
 533:Generated_Source\PSoC6\pdl\cmsis/include/core_cm4.h **** #define SCB_AIRCR_VECTRESET_Pos             0U                                            /*!< SCB 
 534:Generated_Source\PSoC6\pdl\cmsis/include/core_cm4.h **** #define SCB_AIRCR_VECTRESET_Msk            (1UL /*<< SCB_AIRCR_VECTRESET_Pos*/)           /*!< SCB 
 535:Generated_Source\PSoC6\pdl\cmsis/include/core_cm4.h **** 
ARM GAS  C:\Users\charl\AppData\Local\Temp\ccXtIxtO.s 			page 41


 536:Generated_Source\PSoC6\pdl\cmsis/include/core_cm4.h **** /* SCB System Control Register Definitions */
 537:Generated_Source\PSoC6\pdl\cmsis/include/core_cm4.h **** #define SCB_SCR_SEVONPEND_Pos               4U                                            /*!< SCB 
 538:Generated_Source\PSoC6\pdl\cmsis/include/core_cm4.h **** #define SCB_SCR_SEVONPEND_Msk              (1UL << SCB_SCR_SEVONPEND_Pos)                 /*!< SCB 
 539:Generated_Source\PSoC6\pdl\cmsis/include/core_cm4.h **** 
 540:Generated_Source\PSoC6\pdl\cmsis/include/core_cm4.h **** #define SCB_SCR_SLEEPDEEP_Pos               2U                                            /*!< SCB 
 541:Generated_Source\PSoC6\pdl\cmsis/include/core_cm4.h **** #define SCB_SCR_SLEEPDEEP_Msk              (1UL << SCB_SCR_SLEEPDEEP_Pos)                 /*!< SCB 
 542:Generated_Source\PSoC6\pdl\cmsis/include/core_cm4.h **** 
 543:Generated_Source\PSoC6\pdl\cmsis/include/core_cm4.h **** #define SCB_SCR_SLEEPONEXIT_Pos             1U                                            /*!< SCB 
 544:Generated_Source\PSoC6\pdl\cmsis/include/core_cm4.h **** #define SCB_SCR_SLEEPONEXIT_Msk            (1UL << SCB_SCR_SLEEPONEXIT_Pos)               /*!< SCB 
 545:Generated_Source\PSoC6\pdl\cmsis/include/core_cm4.h **** 
 546:Generated_Source\PSoC6\pdl\cmsis/include/core_cm4.h **** /* SCB Configuration Control Register Definitions */
 547:Generated_Source\PSoC6\pdl\cmsis/include/core_cm4.h **** #define SCB_CCR_STKALIGN_Pos                9U                                            /*!< SCB 
 548:Generated_Source\PSoC6\pdl\cmsis/include/core_cm4.h **** #define SCB_CCR_STKALIGN_Msk               (1UL << SCB_CCR_STKALIGN_Pos)                  /*!< SCB 
 549:Generated_Source\PSoC6\pdl\cmsis/include/core_cm4.h **** 
 550:Generated_Source\PSoC6\pdl\cmsis/include/core_cm4.h **** #define SCB_CCR_BFHFNMIGN_Pos               8U                                            /*!< SCB 
 551:Generated_Source\PSoC6\pdl\cmsis/include/core_cm4.h **** #define SCB_CCR_BFHFNMIGN_Msk              (1UL << SCB_CCR_BFHFNMIGN_Pos)                 /*!< SCB 
 552:Generated_Source\PSoC6\pdl\cmsis/include/core_cm4.h **** 
 553:Generated_Source\PSoC6\pdl\cmsis/include/core_cm4.h **** #define SCB_CCR_DIV_0_TRP_Pos               4U                                            /*!< SCB 
 554:Generated_Source\PSoC6\pdl\cmsis/include/core_cm4.h **** #define SCB_CCR_DIV_0_TRP_Msk              (1UL << SCB_CCR_DIV_0_TRP_Pos)                 /*!< SCB 
 555:Generated_Source\PSoC6\pdl\cmsis/include/core_cm4.h **** 
 556:Generated_Source\PSoC6\pdl\cmsis/include/core_cm4.h **** #define SCB_CCR_UNALIGN_TRP_Pos             3U                                            /*!< SCB 
 557:Generated_Source\PSoC6\pdl\cmsis/include/core_cm4.h **** #define SCB_CCR_UNALIGN_TRP_Msk            (1UL << SCB_CCR_UNALIGN_TRP_Pos)               /*!< SCB 
 558:Generated_Source\PSoC6\pdl\cmsis/include/core_cm4.h **** 
 559:Generated_Source\PSoC6\pdl\cmsis/include/core_cm4.h **** #define SCB_CCR_USERSETMPEND_Pos            1U                                            /*!< SCB 
 560:Generated_Source\PSoC6\pdl\cmsis/include/core_cm4.h **** #define SCB_CCR_USERSETMPEND_Msk           (1UL << SCB_CCR_USERSETMPEND_Pos)              /*!< SCB 
 561:Generated_Source\PSoC6\pdl\cmsis/include/core_cm4.h **** 
 562:Generated_Source\PSoC6\pdl\cmsis/include/core_cm4.h **** #define SCB_CCR_NONBASETHRDENA_Pos          0U                                            /*!< SCB 
 563:Generated_Source\PSoC6\pdl\cmsis/include/core_cm4.h **** #define SCB_CCR_NONBASETHRDENA_Msk         (1UL /*<< SCB_CCR_NONBASETHRDENA_Pos*/)        /*!< SCB 
 564:Generated_Source\PSoC6\pdl\cmsis/include/core_cm4.h **** 
 565:Generated_Source\PSoC6\pdl\cmsis/include/core_cm4.h **** /* SCB System Handler Control and State Register Definitions */
 566:Generated_Source\PSoC6\pdl\cmsis/include/core_cm4.h **** #define SCB_SHCSR_USGFAULTENA_Pos          18U                                            /*!< SCB 
 567:Generated_Source\PSoC6\pdl\cmsis/include/core_cm4.h **** #define SCB_SHCSR_USGFAULTENA_Msk          (1UL << SCB_SHCSR_USGFAULTENA_Pos)             /*!< SCB 
 568:Generated_Source\PSoC6\pdl\cmsis/include/core_cm4.h **** 
 569:Generated_Source\PSoC6\pdl\cmsis/include/core_cm4.h **** #define SCB_SHCSR_BUSFAULTENA_Pos          17U                                            /*!< SCB 
 570:Generated_Source\PSoC6\pdl\cmsis/include/core_cm4.h **** #define SCB_SHCSR_BUSFAULTENA_Msk          (1UL << SCB_SHCSR_BUSFAULTENA_Pos)             /*!< SCB 
 571:Generated_Source\PSoC6\pdl\cmsis/include/core_cm4.h **** 
 572:Generated_Source\PSoC6\pdl\cmsis/include/core_cm4.h **** #define SCB_SHCSR_MEMFAULTENA_Pos          16U                                            /*!< SCB 
 573:Generated_Source\PSoC6\pdl\cmsis/include/core_cm4.h **** #define SCB_SHCSR_MEMFAULTENA_Msk          (1UL << SCB_SHCSR_MEMFAULTENA_Pos)             /*!< SCB 
 574:Generated_Source\PSoC6\pdl\cmsis/include/core_cm4.h **** 
 575:Generated_Source\PSoC6\pdl\cmsis/include/core_cm4.h **** #define SCB_SHCSR_SVCALLPENDED_Pos         15U                                            /*!< SCB 
 576:Generated_Source\PSoC6\pdl\cmsis/include/core_cm4.h **** #define SCB_SHCSR_SVCALLPENDED_Msk         (1UL << SCB_SHCSR_SVCALLPENDED_Pos)            /*!< SCB 
 577:Generated_Source\PSoC6\pdl\cmsis/include/core_cm4.h **** 
 578:Generated_Source\PSoC6\pdl\cmsis/include/core_cm4.h **** #define SCB_SHCSR_BUSFAULTPENDED_Pos       14U                                            /*!< SCB 
 579:Generated_Source\PSoC6\pdl\cmsis/include/core_cm4.h **** #define SCB_SHCSR_BUSFAULTPENDED_Msk       (1UL << SCB_SHCSR_BUSFAULTPENDED_Pos)          /*!< SCB 
 580:Generated_Source\PSoC6\pdl\cmsis/include/core_cm4.h **** 
 581:Generated_Source\PSoC6\pdl\cmsis/include/core_cm4.h **** #define SCB_SHCSR_MEMFAULTPENDED_Pos       13U                                            /*!< SCB 
 582:Generated_Source\PSoC6\pdl\cmsis/include/core_cm4.h **** #define SCB_SHCSR_MEMFAULTPENDED_Msk       (1UL << SCB_SHCSR_MEMFAULTPENDED_Pos)          /*!< SCB 
 583:Generated_Source\PSoC6\pdl\cmsis/include/core_cm4.h **** 
 584:Generated_Source\PSoC6\pdl\cmsis/include/core_cm4.h **** #define SCB_SHCSR_USGFAULTPENDED_Pos       12U                                            /*!< SCB 
 585:Generated_Source\PSoC6\pdl\cmsis/include/core_cm4.h **** #define SCB_SHCSR_USGFAULTPENDED_Msk       (1UL << SCB_SHCSR_USGFAULTPENDED_Pos)          /*!< SCB 
 586:Generated_Source\PSoC6\pdl\cmsis/include/core_cm4.h **** 
 587:Generated_Source\PSoC6\pdl\cmsis/include/core_cm4.h **** #define SCB_SHCSR_SYSTICKACT_Pos           11U                                            /*!< SCB 
 588:Generated_Source\PSoC6\pdl\cmsis/include/core_cm4.h **** #define SCB_SHCSR_SYSTICKACT_Msk           (1UL << SCB_SHCSR_SYSTICKACT_Pos)              /*!< SCB 
 589:Generated_Source\PSoC6\pdl\cmsis/include/core_cm4.h **** 
 590:Generated_Source\PSoC6\pdl\cmsis/include/core_cm4.h **** #define SCB_SHCSR_PENDSVACT_Pos            10U                                            /*!< SCB 
 591:Generated_Source\PSoC6\pdl\cmsis/include/core_cm4.h **** #define SCB_SHCSR_PENDSVACT_Msk            (1UL << SCB_SHCSR_PENDSVACT_Pos)               /*!< SCB 
 592:Generated_Source\PSoC6\pdl\cmsis/include/core_cm4.h **** 
ARM GAS  C:\Users\charl\AppData\Local\Temp\ccXtIxtO.s 			page 42


 593:Generated_Source\PSoC6\pdl\cmsis/include/core_cm4.h **** #define SCB_SHCSR_MONITORACT_Pos            8U                                            /*!< SCB 
 594:Generated_Source\PSoC6\pdl\cmsis/include/core_cm4.h **** #define SCB_SHCSR_MONITORACT_Msk           (1UL << SCB_SHCSR_MONITORACT_Pos)              /*!< SCB 
 595:Generated_Source\PSoC6\pdl\cmsis/include/core_cm4.h **** 
 596:Generated_Source\PSoC6\pdl\cmsis/include/core_cm4.h **** #define SCB_SHCSR_SVCALLACT_Pos             7U                                            /*!< SCB 
 597:Generated_Source\PSoC6\pdl\cmsis/include/core_cm4.h **** #define SCB_SHCSR_SVCALLACT_Msk            (1UL << SCB_SHCSR_SVCALLACT_Pos)               /*!< SCB 
 598:Generated_Source\PSoC6\pdl\cmsis/include/core_cm4.h **** 
 599:Generated_Source\PSoC6\pdl\cmsis/include/core_cm4.h **** #define SCB_SHCSR_USGFAULTACT_Pos           3U                                            /*!< SCB 
 600:Generated_Source\PSoC6\pdl\cmsis/include/core_cm4.h **** #define SCB_SHCSR_USGFAULTACT_Msk          (1UL << SCB_SHCSR_USGFAULTACT_Pos)             /*!< SCB 
 601:Generated_Source\PSoC6\pdl\cmsis/include/core_cm4.h **** 
 602:Generated_Source\PSoC6\pdl\cmsis/include/core_cm4.h **** #define SCB_SHCSR_BUSFAULTACT_Pos           1U                                            /*!< SCB 
 603:Generated_Source\PSoC6\pdl\cmsis/include/core_cm4.h **** #define SCB_SHCSR_BUSFAULTACT_Msk          (1UL << SCB_SHCSR_BUSFAULTACT_Pos)             /*!< SCB 
 604:Generated_Source\PSoC6\pdl\cmsis/include/core_cm4.h **** 
 605:Generated_Source\PSoC6\pdl\cmsis/include/core_cm4.h **** #define SCB_SHCSR_MEMFAULTACT_Pos           0U                                            /*!< SCB 
 606:Generated_Source\PSoC6\pdl\cmsis/include/core_cm4.h **** #define SCB_SHCSR_MEMFAULTACT_Msk          (1UL /*<< SCB_SHCSR_MEMFAULTACT_Pos*/)         /*!< SCB 
 607:Generated_Source\PSoC6\pdl\cmsis/include/core_cm4.h **** 
 608:Generated_Source\PSoC6\pdl\cmsis/include/core_cm4.h **** /* SCB Configurable Fault Status Register Definitions */
 609:Generated_Source\PSoC6\pdl\cmsis/include/core_cm4.h **** #define SCB_CFSR_USGFAULTSR_Pos            16U                                            /*!< SCB 
 610:Generated_Source\PSoC6\pdl\cmsis/include/core_cm4.h **** #define SCB_CFSR_USGFAULTSR_Msk            (0xFFFFUL << SCB_CFSR_USGFAULTSR_Pos)          /*!< SCB 
 611:Generated_Source\PSoC6\pdl\cmsis/include/core_cm4.h **** 
 612:Generated_Source\PSoC6\pdl\cmsis/include/core_cm4.h **** #define SCB_CFSR_BUSFAULTSR_Pos             8U                                            /*!< SCB 
 613:Generated_Source\PSoC6\pdl\cmsis/include/core_cm4.h **** #define SCB_CFSR_BUSFAULTSR_Msk            (0xFFUL << SCB_CFSR_BUSFAULTSR_Pos)            /*!< SCB 
 614:Generated_Source\PSoC6\pdl\cmsis/include/core_cm4.h **** 
 615:Generated_Source\PSoC6\pdl\cmsis/include/core_cm4.h **** #define SCB_CFSR_MEMFAULTSR_Pos             0U                                            /*!< SCB 
 616:Generated_Source\PSoC6\pdl\cmsis/include/core_cm4.h **** #define SCB_CFSR_MEMFAULTSR_Msk            (0xFFUL /*<< SCB_CFSR_MEMFAULTSR_Pos*/)        /*!< SCB 
 617:Generated_Source\PSoC6\pdl\cmsis/include/core_cm4.h **** 
 618:Generated_Source\PSoC6\pdl\cmsis/include/core_cm4.h **** /* MemManage Fault Status Register (part of SCB Configurable Fault Status Register) */
 619:Generated_Source\PSoC6\pdl\cmsis/include/core_cm4.h **** #define SCB_CFSR_MMARVALID_Pos             (SCB_SHCSR_MEMFAULTACT_Pos + 7U)               /*!< SCB 
 620:Generated_Source\PSoC6\pdl\cmsis/include/core_cm4.h **** #define SCB_CFSR_MMARVALID_Msk             (1UL << SCB_CFSR_MMARVALID_Pos)                /*!< SCB 
 621:Generated_Source\PSoC6\pdl\cmsis/include/core_cm4.h **** 
 622:Generated_Source\PSoC6\pdl\cmsis/include/core_cm4.h **** #define SCB_CFSR_MLSPERR_Pos               (SCB_SHCSR_MEMFAULTACT_Pos + 5U)               /*!< SCB 
 623:Generated_Source\PSoC6\pdl\cmsis/include/core_cm4.h **** #define SCB_CFSR_MLSPERR_Msk               (1UL << SCB_CFSR_MLSPERR_Pos)                  /*!< SCB 
 624:Generated_Source\PSoC6\pdl\cmsis/include/core_cm4.h **** 
